	.section .text
.LNDBG_TX:
# mark_description "Intel(R) C Intel(R) 64 Compiler for applications running on Intel(R) 64, Version 16.0.2.181 Build 20160204";
# mark_description "-Ofast -xAVX -S -restrict -ansi-alias -qopenmp -g -fcode-asm";
	.file "lbm.c"
	.text
..TXTST0:
.L_2__routine_start_main_0:
# -- Begin  main
	.text
# mark_begin;
       .align    16,0x90
	.globl main
# --- main(int, char **)
main:
# parameter 1(argc): %edi
# parameter 2(argv): %rsi
..B1.1:                         # Preds ..B1.0
	.cfi_startproc
..___tag_value_main.2:
..L3:
                                                          #lbm.c:83.34
..LN0:
	.file   1 "lbm.c"
	.loc    1  83  is_stmt 1
        pushq     %rbp                                          #lbm.c:83.34
	.cfi_def_cfa_offset 16
..LN1:
        movq      %rsp, %rbp                                    #lbm.c:83.34
	.cfi_def_cfa 6, 16
	.cfi_offset 6, -16
..LN2:
        andq      $-128, %rsp                                   #lbm.c:83.34
..LN3:
        pushq     %r12                                          #lbm.c:83.34
..LN4:
        pushq     %r13                                          #lbm.c:83.34
..LN5:
        pushq     %r14                                          #lbm.c:83.34
..LN6:
        pushq     %r15                                          #lbm.c:83.34
..LN7:
        pushq     %rbx                                          #lbm.c:83.34
..LN8:
        subq      $600, %rsp                                    #lbm.c:83.34
	.cfi_escape 0x10, 0x03, 0x0e, 0x38, 0x1c, 0x0d, 0x80, 0xff, 0xff, 0xff, 0x1a, 0x0d, 0xd8, 0xff, 0xff, 0xff, 0x22
	.cfi_escape 0x10, 0x0c, 0x0e, 0x38, 0x1c, 0x0d, 0x80, 0xff, 0xff, 0xff, 0x1a, 0x0d, 0xf8, 0xff, 0xff, 0xff, 0x22
	.cfi_escape 0x10, 0x0d, 0x0e, 0x38, 0x1c, 0x0d, 0x80, 0xff, 0xff, 0xff, 0x1a, 0x0d, 0xf0, 0xff, 0xff, 0xff, 0x22
	.cfi_escape 0x10, 0x0e, 0x0e, 0x38, 0x1c, 0x0d, 0x80, 0xff, 0xff, 0xff, 0x1a, 0x0d, 0xe8, 0xff, 0xff, 0xff, 0x22
	.cfi_escape 0x10, 0x0f, 0x0e, 0x38, 0x1c, 0x0d, 0x80, 0xff, 0xff, 0xff, 0x1a, 0x0d, 0xe0, 0xff, 0xff, 0xff, 0x22
..LN9:
        movq      %rsi, %rbx                                    #lbm.c:83.34
..LN10:
        movl      %edi, %r12d                                   #lbm.c:83.34
..LN11:
        movl      $71678, %esi                                  #lbm.c:83.34
..LN12:
        movl      $3, %edi                                      #lbm.c:83.34
..LN13:
        call      __intel_new_feature_proc_init                 #lbm.c:83.34
..LN14:
                                # LOE rbx r12d
..B1.115:                       # Preds ..B1.1
..LN15:
        vstmxcsr  (%rsp)                                        #lbm.c:83.34
..LN16:
        movl      $.2.25_2_kmpc_loc_struct_pack.75, %edi        #lbm.c:83.34
..LN17:
        xorl      %esi, %esi                                    #lbm.c:83.34
..LN18:
        orl       $32832, (%rsp)                                #lbm.c:83.34
..LN19:
        xorl      %eax, %eax                                    #lbm.c:83.34
..LN20:
        vldmxcsr  (%rsp)                                        #lbm.c:83.34
..___tag_value_main.13:
..LN21:
        call      __kmpc_begin                                  #lbm.c:83.34
..___tag_value_main.14:
..LN22:
                                # LOE rbx r12d
..B1.2:                         # Preds ..B1.115
..LN23:
	.loc    1  87  prologue_end  is_stmt 1
        xorl      %eax, %eax                                    #lbm.c:87.20
..LN24:
        movq      %rax, 224(%rsp)                               #lbm.c:87.20
..LN25:
	.loc    1  88  is_stmt 1
        movq      %rax, 232(%rsp)                               #lbm.c:88.20
..LN26:
	.loc    1  89  is_stmt 1
        movq      %rax, 240(%rsp)                               #lbm.c:89.22
..LN27:
	.loc    1  90  is_stmt 1
        movq      %rax, 248(%rsp)                               #lbm.c:90.20
..LN28:
	.loc    1  98  is_stmt 1
        cmpl      $3, %r12d                                     #lbm.c:98.15
..LN29:
        je        ..B1.5        # Prob 40%                      #lbm.c:98.15
..LN30:
                                # LOE rbx
..B1.3:                         # Preds ..B1.2
..LN31:
	.loc    1  685  is_stmt 1
        movl      $.L_2__STRING.34, %esi                        #lbm.c:685.3
..LN32:
        xorl      %eax, %eax                                    #lbm.c:685.3
..LN33:
        movq      stderr(%rip), %rdi                            #lbm.c:685.3
..LN34:
        movq      (%rbx), %rdx                                  #lbm.c:685.3
..LN35:
#       fprintf(FILE *__restrict__, const char *__restrict__, ...)
        call      fprintf                                       #lbm.c:685.3
..LN36:
                                # LOE
..B1.4:                         # Preds ..B1.3
..LN37:
	.loc    1  686  is_stmt 1
        movl      $1, %edi                                      #lbm.c:686.3
..LN38:
#       exit(int)
        call      exit                                          #lbm.c:686.3
..LN39:
                                # LOE
..B1.5:                         # Preds ..B1.2
..LN40:
	.loc    1  106  is_stmt 1
        addq      $-16, %rsp                                    #lbm.c:106.3
..LN41:
        movq      8(%rbx), %rdi                                 #lbm.c:106.3
..LN42:
        lea       304(%rsp), %rdx                               #lbm.c:106.3
..LN43:
        movq      16(%rbx), %rsi                                #lbm.c:106.3
..LN44:
        lea       240(%rsp), %rcx                               #lbm.c:106.3
..LN45:
        lea       248(%rsp), %r8                                #lbm.c:106.3
..LN46:
        lea       256(%rsp), %r9                                #lbm.c:106.3
..LN47:
        lea       264(%rsp), %rax                               #lbm.c:106.3
..LN48:
        movq      %rax, (%rsp)                                  #lbm.c:106.3
..___tag_value_main.15:
..LN49:
#       initialise(const char *, const char *, t_param *, t_soa **, t_soa **, int **, float **)
        call      initialise                                    #lbm.c:106.3
..___tag_value_main.16:
..LN50:
                                # LOE
..B1.116:                       # Preds ..B1.5
..LN51:
        addq      $16, %rsp                                     #lbm.c:106.3
..LN52:
                                # LOE
..B1.6:                         # Preds ..B1.116
..LN53:
	.loc    1  109  is_stmt 1
        xorl      %esi, %esi                                    #lbm.c:109.3
..LN54:
        lea       176(%rsp), %rdi                               #lbm.c:109.3
..LN55:
#       gettimeofday(struct timeval *__restrict__, __timezone_ptr_t)
        call      gettimeofday                                  #lbm.c:109.3
..LN56:
                                # LOE
..B1.7:                         # Preds ..B1.6
..LN57:
	.loc    1  110  is_stmt 1
        vxorpd    %xmm0, %xmm0, %xmm0                           #lbm.c:110.26
..LN58:
        vxorpd    %xmm1, %xmm1, %xmm1                           #lbm.c:110.9
..LN59:
        vcvtsi2sdq 184(%rsp), %xmm0, %xmm0                      #lbm.c:110.26
..LN60:
        vcvtsi2sdq 176(%rsp), %xmm1, %xmm1                      #lbm.c:110.9
..LN61:
        vmulsd    .L_2il0floatpacket.4(%rip), %xmm0, %xmm2      #lbm.c:110.43
..LN62:
	.loc    1  112  is_stmt 1
        movl      296(%rsp), %eax                               #lbm.c:112.25
..LN63:
        xorl      %r8d, %r8d                                    #lbm.c:112.3
..LN64:
	.loc    1  170  is_stmt 1
        vxorps    %xmm4, %xmm4, %xmm4                           #lbm.c:170.55
..LN65:
	.loc    1  110  is_stmt 1
        vaddsd    %xmm2, %xmm1, %xmm3                           #lbm.c:110.43
..LN66:
        vmovsd    %xmm3, 256(%rsp)                              #lbm.c:110.43
..LN67:
	.loc    1  112  is_stmt 1
        testl     %eax, %eax                                    #lbm.c:112.25
..LN68:
        jle       ..B1.65       # Prob 9%                       #lbm.c:112.25
..LN69:
                                # LOE eax r8d xmm4
..B1.8:                         # Preds ..B1.7
..LN70:
	.loc    1  113  is_stmt 1
        movq      224(%rsp), %rdi                               #lbm.c:113.26
..LN71:
	.loc    1  112  is_stmt 1
        lea       1(%rax), %edx                                 #lbm.c:112.25
..LN72:
        shrl      $31, %edx                                     #lbm.c:112.25
..LN73:
	.loc    1  113  is_stmt 1
        movq      232(%rsp), %rsi                               #lbm.c:113.33
..LN74:
        movq      240(%rsp), %rbx                               #lbm.c:113.44
..LN75:
        movq      248(%rsp), %rcx                               #lbm.c:113.55
..LN76:
	.loc    1  112  is_stmt 1
        lea       1(%rax,%rdx), %eax                            #lbm.c:112.25
..LN77:
        sarl      $1, %eax                                      #lbm.c:112.25
..LN78:
        vmovss    %xmm4, 280(%rsp)                              #lbm.c:112.25
..LN79:
        movl      %eax, 480(%rsp)                               #lbm.c:112.25
..LN80:
        movq      %rcx, 488(%rsp)                               #lbm.c:112.25
..LN81:
        movq      %rbx, 496(%rsp)                               #lbm.c:112.25
..LN82:
        movq      %rsi, 504(%rsp)                               #lbm.c:112.25
..LN83:
        movq      %rdi, 512(%rsp)                               #lbm.c:112.25
..LN84:
        movl      %r8d, 520(%rsp)                               #lbm.c:112.25
..LN85:
                                # LOE
..B1.9:                         # Preds ..B1.63 ..B1.8
..L17:          # optimization report
                # %s was not vectorized: inner loop was already vectorized
..LN86:
	.loc    1  113  is_stmt 1
        vmovss    304(%rsp), %xmm1                              #lbm.c:113.5
..LN87:
	.loc    1  150  is_stmt 1
        vmulss    .L_2il0floatpacket.5(%rip), %xmm1, %xmm0      #lbm.c:150.37
..LN88:
	.loc    1  151  is_stmt 1
        vmulss    .L_2il0floatpacket.6(%rip), %xmm1, %xmm2      #lbm.c:151.37
..LN89:
	.loc    1  157  is_stmt 1
        movq      512(%rsp), %rax                               #lbm.c:157.20
..LN90:
	.loc    1  113  is_stmt 1
        movq      304(%rsp), %rdx                               #lbm.c:113.5
..LN91:
        movl      312(%rsp), %ebx                               #lbm.c:113.5
..LN92:
        vmovups   288(%rsp), %xmm7                              #lbm.c:113.5
..LN93:
        vmovss    308(%rsp), %xmm3                              #lbm.c:113.5
..LN94:
        movl      292(%rsp), %edi                               #lbm.c:113.5
..LN95:
        movl      288(%rsp), %esi                               #lbm.c:113.5
..LN96:
	.loc    1  154  is_stmt 1
        addl      $-2, %edi                                     #lbm.c:154.30
..LN97:
	.loc    1  113  is_stmt 1
        movq      %rdx, 160(%rsp)                               #lbm.c:113.5
..LN98:
        movl      %ebx, 168(%rsp)                               #lbm.c:113.5
..LN99:
        vmovups   %xmm7, 144(%rsp)                              #lbm.c:113.5
..LN100:
	.loc    1  150  is_stmt 1
        vmulss    %xmm3, %xmm0, %xmm7                           #lbm.c:150.52
..LN101:
	.loc    1  151  is_stmt 1
        vmulss    %xmm3, %xmm2, %xmm6                           #lbm.c:151.52
..LN102:
	.loc    1  157  is_stmt 1
        movq      8(%rax), %rdx                                 #lbm.c:157.20
..LN103:
	.loc    1  159  is_stmt 1
        movq      24(%rax), %rbx                                #lbm.c:159.20
..LN104:
	.loc    1  161  is_stmt 1
        movq      40(%rax), %r12                                #lbm.c:161.20
..LN105:
	.loc    1  162  is_stmt 1
        movq      48(%rax), %r9                                 #lbm.c:162.20
..LN106:
	.loc    1  163  is_stmt 1
        movq      56(%rax), %r10                                #lbm.c:163.20
..LN107:
	.loc    1  164  is_stmt 1
        movq      64(%rax), %r11                                #lbm.c:164.20
..LN108:
	.loc    1  166  is_stmt 1
        testl     %esi, %esi                                    #lbm.c:166.42
..LN109:
        jle       ..B1.35       # Prob 50%                      #lbm.c:166.42
..LN110:
                                # LOE rdx rbx r9 r10 r11 r12 esi edi xmm6 xmm7
..B1.10:                        # Preds ..B1.9
..LN111:
        movslq    %esi, %rax                                    #lbm.c:166.3
..LN112:
        cmpq      $8, %rax                                      #lbm.c:166.3
..LN113:
        jl        ..B1.112      # Prob 10%                      #lbm.c:166.3
..LN114:
                                # LOE rax rdx rbx r9 r10 r11 r12 esi edi xmm6 xmm7
..B1.11:                        # Preds ..B1.10
..LN115:
	.loc    1  169  is_stmt 1
        movl      %edi, %r13d                                   #lbm.c:169.28
..LN116:
        imull     %esi, %r13d                                   #lbm.c:169.28
..LN117:
	.loc    1  180  is_stmt 1
        movslq    %r13d, %r13                                   #lbm.c:180.7
..LN118:
        lea       (%r10,%r13,4), %rcx                           #lbm.c:180.7
..LN119:
        movq      %rcx, 472(%rsp)                               #lbm.c:180.7
..LN120:
	.loc    1  166  is_stmt 1
        andq      $31, %rcx                                     #lbm.c:166.3
..LN121:
        movl      %ecx, %r8d                                    #lbm.c:166.3
..LN122:
        negl      %r8d                                          #lbm.c:166.3
..LN123:
        addl      $32, %r8d                                     #lbm.c:166.3
..LN124:
        shrl      $2, %r8d                                      #lbm.c:166.3
..LN125:
        testl     %ecx, %ecx                                    #lbm.c:166.3
..LN126:
        cmovne    %r8d, %ecx                                    #lbm.c:166.3
..LN127:
        lea       8(%rcx), %r14d                                #lbm.c:166.3
..LN128:
        cmpq      %r14, %rax                                    #lbm.c:166.3
..LN129:
        jl        ..B1.111      # Prob 10%                      #lbm.c:166.3
..LN130:
                                # LOE rax rdx rcx rbx r9 r10 r11 r12 r13 esi edi xmm6 xmm7
..B1.12:                        # Preds ..B1.11
..LN131:
        movl      %esi, %r8d                                    #lbm.c:166.3
..LN132:
        xorl      %r14d, %r14d                                  #lbm.c:166.3
..LN133:
        subl      %ecx, %r8d                                    #lbm.c:166.3
..LN134:
        andl      $7, %r8d                                      #lbm.c:166.3
..LN135:
        negl      %r8d                                          #lbm.c:166.3
..LN136:
        addl      %esi, %r8d                                    #lbm.c:166.3
..LN137:
        testq     %rcx, %rcx                                    #lbm.c:166.3
..LN138:
        jbe       ..B1.21       # Prob 10%                      #lbm.c:166.3
..LN139:
                                # LOE rax rdx rcx rbx r9 r10 r11 r12 r13 r14 esi edi r8d xmm6 xmm7
..B1.13:                        # Preds ..B1.12
..LN140:
	.loc    1  169  is_stmt 1
        movq      %r10, 264(%rsp)                               #lbm.c:169.10
..LN141:
	.loc    1  176  is_stmt 1
        lea       (%r11,%r13,4), %r15                           #lbm.c:176.7
..LN142:
        movq      %r15, 456(%rsp)                               #lbm.c:176.7
..LN143:
	.loc    1  175  is_stmt 1
        lea       (%r12,%r13,4), %r15                           #lbm.c:175.7
..LN144:
        movq      %r15, 440(%rsp)                               #lbm.c:175.7
..LN145:
	.loc    1  174  is_stmt 1
        lea       (%rdx,%r13,4), %r15                           #lbm.c:174.7
..LN146:
        movq      %r15, 432(%rsp)                               #lbm.c:174.7
..LN147:
	.loc    1  171  is_stmt 1
        lea       (%r9,%r13,4), %r15                            #lbm.c:171.13
..LN148:
        movq      %r15, 416(%rsp)                               #lbm.c:171.13
..LN149:
	.loc    1  170  is_stmt 1
        lea       (%rbx,%r13,4), %r15                           #lbm.c:170.13
..LN150:
        movq      %r15, 400(%rsp)                               #lbm.c:170.13
..LN151:
	.loc    1  169  is_stmt 1
        movq      496(%rsp), %r15                               #lbm.c:169.10
..LN152:
        movq      %r11, 272(%rsp)                               #lbm.c:169.10
..LN153:
        movl      %r8d, 320(%rsp)                               #lbm.c:169.10
..LN154:
        movl      %edi, 328(%rsp)                               #lbm.c:169.10
..LN155:
        lea       (%r15,%r13,4), %r13                           #lbm.c:169.10
..LN156:
        movl      %esi, 336(%rsp)                               #lbm.c:169.10
..LN157:
        vmovss    280(%rsp), %xmm0                              #lbm.c:169.10
..LN158:
        movq      400(%rsp), %rsi                               #lbm.c:169.10
..LN159:
        movq      416(%rsp), %rdi                               #lbm.c:169.10
..LN160:
        movq      432(%rsp), %r8                                #lbm.c:169.10
..LN161:
        movq      440(%rsp), %r10                               #lbm.c:169.10
..LN162:
        movq      456(%rsp), %r11                               #lbm.c:169.10
..LN163:
        movq      472(%rsp), %r15                               #lbm.c:169.10
..LN164:
                                # LOE rax rdx rcx rbx rsi rdi r8 r9 r10 r11 r12 r13 r14 r15 xmm0 xmm6 xmm7
..B1.14:                        # Preds ..B1.19 ..B1.13
..L18:          # optimization report
                # LOOP WAS UNROLLED BY 1
                # PEELED LOOP FOR VECTORIZATION
                # SIMD LOOP
                # VECTORIZATION SPEEDUP COEFFECIENT 3.730469
                # VECTOR TRIP COUNT IS ESTIMATED CONSTANT
                # VECTOR LENGTH 8
                # NORMALIZED VECTORIZATION OVERHEAD 0.562500
..LN165:
        cmpl      $0, (%r13,%r14,4)                             #lbm.c:169.10
..LN166:
        jne       ..B1.19       # Prob 50%                      #lbm.c:169.10
..LN167:
                                # LOE rax rdx rcx rbx rsi rdi r8 r9 r10 r11 r12 r13 r14 r15 xmm0 xmm6 xmm7
..B1.15:                        # Preds ..B1.14
..LN168:
	.loc    1  170  is_stmt 1
        vmovss    (%rsi,%r14,4), %xmm1                          #lbm.c:170.13
..LN169:
        vsubss    %xmm7, %xmm1, %xmm2                           #lbm.c:170.49
..LN170:
        vcomiss   %xmm0, %xmm2                                  #lbm.c:170.55
..LN171:
        jbe       ..B1.19       # Prob 50%                      #lbm.c:170.55
..LN172:
                                # LOE rax rdx rcx rbx rsi rdi r8 r9 r10 r11 r12 r13 r14 r15 xmm0 xmm6 xmm7
..B1.16:                        # Preds ..B1.15
..LN173:
	.loc    1  171  is_stmt 1
        vmovss    (%rdi,%r14,4), %xmm1                          #lbm.c:171.13
..LN174:
        vsubss    %xmm6, %xmm1, %xmm2                           #lbm.c:171.49
..LN175:
        vcomiss   %xmm0, %xmm2                                  #lbm.c:171.55
..LN176:
        jbe       ..B1.19       # Prob 50%                      #lbm.c:171.55
..LN177:
                                # LOE rax rdx rcx rbx rsi rdi r8 r9 r10 r11 r12 r13 r14 r15 xmm0 xmm6 xmm7
..B1.17:                        # Preds ..B1.16
..LN178:
	.loc    1  172  is_stmt 1
        vmovss    (%r15,%r14,4), %xmm1                          #lbm.c:172.13
..LN179:
        vsubss    %xmm6, %xmm1, %xmm2                           #lbm.c:172.49
..LN180:
        vcomiss   %xmm0, %xmm2                                  #lbm.c:172.55
..LN181:
        jbe       ..B1.19       # Prob 50%                      #lbm.c:172.55
..LN182:
                                # LOE rax rdx rcx rbx rsi rdi r8 r9 r10 r11 r12 r13 r14 r15 xmm0 xmm6 xmm7
..B1.18:                        # Preds ..B1.17
..LN183:
	.loc    1  174  is_stmt 1
        vaddss    (%r8,%r14,4), %xmm7, %xmm1                    #lbm.c:174.7
..LN184:
        vmovss    %xmm1, (%r8,%r14,4)                           #lbm.c:174.7
..LN185:
	.loc    1  175  is_stmt 1
        vaddss    (%r10,%r14,4), %xmm6, %xmm2                   #lbm.c:175.7
..LN186:
        vmovss    %xmm2, (%r10,%r14,4)                          #lbm.c:175.7
..LN187:
	.loc    1  176  is_stmt 1
        vaddss    (%r11,%r14,4), %xmm6, %xmm3                   #lbm.c:176.7
..LN188:
        vmovss    %xmm3, (%r11,%r14,4)                          #lbm.c:176.7
..LN189:
	.loc    1  178  is_stmt 1
        vmovss    (%rsi,%r14,4), %xmm4                          #lbm.c:178.7
..LN190:
        vsubss    %xmm7, %xmm4, %xmm5                           #lbm.c:178.7
..LN191:
        vmovss    %xmm5, (%rsi,%r14,4)                          #lbm.c:178.7
..LN192:
	.loc    1  179  is_stmt 1
        vmovss    (%rdi,%r14,4), %xmm8                          #lbm.c:179.7
..LN193:
        vsubss    %xmm6, %xmm8, %xmm9                           #lbm.c:179.7
..LN194:
        vmovss    %xmm9, (%rdi,%r14,4)                          #lbm.c:179.7
..LN195:
	.loc    1  180  is_stmt 1
        vmovss    (%r15,%r14,4), %xmm10                         #lbm.c:180.7
..LN196:
        vsubss    %xmm6, %xmm10, %xmm11                         #lbm.c:180.7
..LN197:
        vmovss    %xmm11, (%r15,%r14,4)                         #lbm.c:180.7
..LN198:
                                # LOE rax rdx rcx rbx rsi rdi r8 r9 r10 r11 r12 r13 r14 r15 xmm0 xmm6 xmm7
..B1.19:                        # Preds ..B1.14 ..B1.15 ..B1.16 ..B1.17 ..B1.18
                                #      
..LN199:
	.loc    1  166  is_stmt 1
        incq      %r14                                          #lbm.c:166.3
..LN200:
        cmpq      %rcx, %r14                                    #lbm.c:166.3
..LN201:
        jb        ..B1.14       # Prob 82%                      #lbm.c:166.3
..LN202:
                                # LOE rax rdx rcx rbx rsi rdi r8 r9 r10 r11 r12 r13 r14 r15 xmm0 xmm6 xmm7
..B1.20:                        # Preds ..B1.19
..LN203:
        movq      264(%rsp), %r10                               #
..LN204:
        movq      272(%rsp), %r11                               #
..LN205:
        movl      320(%rsp), %r8d                               #
..LN206:
        movl      328(%rsp), %edi                               #
..LN207:
        movl      336(%rsp), %esi                               #
..LN208:
                                # LOE rax rdx rcx rbx r9 r10 r11 r12 esi edi r8d xmm6 xmm7
..B1.21:                        # Preds ..B1.12 ..B1.20
..LN209:
        movq      %rax, 104(%rsp)                               #
..LN210:
	.loc    1  169  is_stmt 1
        movl      %edi, %eax                                    #lbm.c:169.28
..LN211:
        imull     %esi, %eax                                    #lbm.c:169.28
..LN212:
	.loc    1  162  is_stmt 1
        movq      %r9, %r14                                     #lbm.c:162.38
..LN213:
	.loc    1  150  is_stmt 1
        vshufps   $0, %xmm7, %xmm7, %xmm2                       #lbm.c:150.18
..LN214:
	.loc    1  151  is_stmt 1
        vshufps   $0, %xmm6, %xmm6, %xmm0                       #lbm.c:151.18
..LN215:
	.loc    1  169  is_stmt 1
        vpxor     %xmm5, %xmm5, %xmm5                           #lbm.c:169.10
..LN216:
	.loc    1  172  is_stmt 1
        vmovdqu   .L_2il0floatpacket.9(%rip), %ymm3             #lbm.c:172.55
..LN217:
        movq      %rdx, 96(%rsp)                                #
..LN218:
	.loc    1  164  is_stmt 1
        movq      %r11, %r15                                    #lbm.c:164.38
..LN219:
	.loc    1  163  is_stmt 1
        movq      %r10, %r13                                    #lbm.c:163.38
..LN220:
	.loc    1  169  is_stmt 1
        cltq                                                    #lbm.c:169.10
..LN221:
        movq      %r12, 80(%rsp)                                #
..LN222:
        movq      %rbx, 88(%rsp)                                #
..LN223:
	.loc    1  174  is_stmt 1
        lea       (%rdx,%rax,4), %rdx                           #lbm.c:174.7
..LN224:
	.loc    1  170  is_stmt 1
        lea       (%rbx,%rax,4), %rbx                           #lbm.c:170.13
..LN225:
	.loc    1  174  is_stmt 1
        movq      %rdx, 32(%rsp)                                #lbm.c:174.7
..LN226:
	.loc    1  175  is_stmt 1
        lea       (%r12,%rax,4), %r12                           #lbm.c:175.7
..LN227:
	.loc    1  169  is_stmt 1
        movq      496(%rsp), %rdx                               #lbm.c:169.10
..LN228:
	.loc    1  171  is_stmt 1
        lea       (%r14,%rax,4), %r14                           #lbm.c:171.13
..LN229:
	.loc    1  175  is_stmt 1
        movq      %r12, 24(%rsp)                                #lbm.c:175.7
..LN230:
	.loc    1  176  is_stmt 1
        lea       (%r15,%rax,4), %r15                           #lbm.c:176.7
..LN231:
        movq      %r15, 16(%rsp)                                #lbm.c:176.7
..LN232:
	.loc    1  172  is_stmt 1
        lea       (%r13,%rax,4), %r13                           #lbm.c:172.13
..LN233:
	.loc    1  170  is_stmt 1
        movq      %rbx, 8(%rsp)                                 #lbm.c:170.13
..LN234:
	.loc    1  169  is_stmt 1
        lea       (%rdx,%rax,4), %r15                           #lbm.c:169.10
..LN235:
	.loc    1  171  is_stmt 1
        movq      %r14, (%rsp)                                  #lbm.c:171.13
..LN236:
	.loc    1  166  is_stmt 1
        movq      %r10, 264(%rsp)                               #lbm.c:166.3
..LN237:
        movq      %r11, 272(%rsp)                               #lbm.c:166.3
..LN238:
        movl      %r8d, 320(%rsp)                               #lbm.c:166.3
..LN239:
        movl      %edi, 328(%rsp)                               #lbm.c:166.3
..LN240:
        movl      %esi, 336(%rsp)                               #lbm.c:166.3
..LN241:
	.loc    1  170  is_stmt 1
        vxorps    %ymm4, %ymm4, %ymm4                           #lbm.c:170.55
..LN242:
	.loc    1  166  is_stmt 1
        movslq    %r8d, %r14                                    #lbm.c:166.3
..LN243:
        movq      104(%rsp), %rax                               #lbm.c:166.3
..LN244:
        movq      96(%rsp), %rdx                                #lbm.c:166.3
..LN245:
        movq      88(%rsp), %rbx                                #lbm.c:166.3
..LN246:
        movq      80(%rsp), %r12                                #lbm.c:166.3
..LN247:
        movq      (%rsp), %rsi                                  #lbm.c:166.3
..LN248:
        movq      8(%rsp), %rdi                                 #lbm.c:166.3
..LN249:
        movq      16(%rsp), %r8                                 #lbm.c:166.3
..LN250:
        movq      24(%rsp), %r10                                #lbm.c:166.3
..LN251:
        movq      32(%rsp), %r11                                #lbm.c:166.3
..LN252:
	.loc    1  150  is_stmt 1
        vinsertf128 $1, %xmm2, %ymm2, %ymm2                     #lbm.c:150.18
..LN253:
	.loc    1  151  is_stmt 1
        vinsertf128 $1, %xmm0, %ymm0, %ymm1                     #lbm.c:151.18
..LN254:
                                # LOE rax rdx rcx rbx rsi rdi r8 r9 r10 r11 r12 r13 r14 r15 xmm5 xmm6 xmm7 ymm1 ymm2 ymm3 ymm4
..B1.22:                        # Preds ..B1.24 ..B1.21
..L19:          # optimization report
                # LOOP WAS UNROLLED BY 1
                # LOOP WAS VECTORIZED
                # SIMD LOOP
                # VECTORIZATION SPEEDUP COEFFECIENT 3.730469
                # VECTOR TRIP COUNT IS ESTIMATED CONSTANT
                # VECTOR LENGTH 8
                # NORMALIZED VECTORIZATION OVERHEAD 0.562500
                # MAIN VECTOR TYPE: 32-bits floating point
..LN255:
	.loc    1  169  is_stmt 1
        vpcmpeqd  (%r15,%rcx,4), %xmm5, %xmm0                   #lbm.c:169.10
..LN256:
        vpcmpeqd  16(%r15,%rcx,4), %xmm5, %xmm8                 #lbm.c:169.10
..LN257:
        vinsertf128 $1, %xmm8, %ymm0, %ymm11                    #lbm.c:169.10
..LN258:
	.loc    1  170  is_stmt 1
        vmaskmovps (%rdi,%rcx,4), %ymm11, %ymm9                 #lbm.c:170.13
..LN259:
        vsubps    %ymm2, %ymm9, %ymm10                          #lbm.c:170.49
..LN260:
        vcmpgtps  %ymm4, %ymm10, %ymm12                         #lbm.c:170.55
..LN261:
        vandps    %ymm12, %ymm11, %ymm15                        #lbm.c:170.55
..LN262:
	.loc    1  171  is_stmt 1
        vmaskmovps (%rsi,%rcx,4), %ymm15, %ymm13                #lbm.c:171.13
..LN263:
        vsubps    %ymm1, %ymm13, %ymm14                         #lbm.c:171.49
..LN264:
        vcmpgtps  %ymm4, %ymm14, %ymm0                          #lbm.c:171.55
..LN265:
        vandps    %ymm0, %ymm15, %ymm10                         #lbm.c:171.55
..LN266:
	.loc    1  172  is_stmt 1
        vmaskmovps (%r13,%rcx,4), %ymm10, %ymm8                 #lbm.c:172.13
..LN267:
        vsubps    %ymm1, %ymm8, %ymm9                           #lbm.c:172.49
..LN268:
        vcmpgtps  %ymm4, %ymm9, %ymm11                          #lbm.c:172.55
..LN269:
        vandps    %ymm11, %ymm10, %ymm0                         #lbm.c:172.55
..LN270:
        vptest    %ymm3, %ymm0                                  #lbm.c:172.55
..LN271:
        je        ..B1.24       # Prob 20%                      #lbm.c:172.55
..LN272:
                                # LOE rax rdx rcx rbx rsi rdi r8 r9 r10 r11 r12 r13 r14 r15 xmm5 xmm6 xmm7 ymm0 ymm1 ymm2 ymm3 ymm4
..B1.23:                        # Preds ..B1.22
..LN273:
	.loc    1  174  is_stmt 1
        vmaskmovps (%r11,%rcx,4), %ymm0, %ymm8                  #lbm.c:174.7
..LN274:
        vaddps    %ymm2, %ymm8, %ymm9                           #lbm.c:174.7
..LN275:
        vmaskmovps %ymm9, %ymm0, (%r11,%rcx,4)                  #lbm.c:174.7
..LN276:
	.loc    1  175  is_stmt 1
        vmaskmovps (%r10,%rcx,4), %ymm0, %ymm10                 #lbm.c:175.7
..LN277:
        vaddps    %ymm1, %ymm10, %ymm11                         #lbm.c:175.7
..LN278:
        vmaskmovps %ymm11, %ymm0, (%r10,%rcx,4)                 #lbm.c:175.7
..LN279:
	.loc    1  176  is_stmt 1
        vmaskmovps (%r8,%rcx,4), %ymm0, %ymm12                  #lbm.c:176.7
..LN280:
        vaddps    %ymm1, %ymm12, %ymm13                         #lbm.c:176.7
..LN281:
        vmaskmovps %ymm13, %ymm0, (%r8,%rcx,4)                  #lbm.c:176.7
..LN282:
	.loc    1  178  is_stmt 1
        vmaskmovps (%rdi,%rcx,4), %ymm0, %ymm14                 #lbm.c:178.7
..LN283:
        vsubps    %ymm2, %ymm14, %ymm15                         #lbm.c:178.7
..LN284:
        vmaskmovps %ymm15, %ymm0, (%rdi,%rcx,4)                 #lbm.c:178.7
..LN285:
	.loc    1  179  is_stmt 1
        vmaskmovps (%rsi,%rcx,4), %ymm0, %ymm8                  #lbm.c:179.7
..LN286:
        vsubps    %ymm1, %ymm8, %ymm9                           #lbm.c:179.7
..LN287:
        vmaskmovps %ymm9, %ymm0, (%rsi,%rcx,4)                  #lbm.c:179.7
..LN288:
	.loc    1  180  is_stmt 1
        vmaskmovps (%r13,%rcx,4), %ymm0, %ymm10                 #lbm.c:180.7
..LN289:
        vsubps    %ymm1, %ymm10, %ymm11                         #lbm.c:180.7
..LN290:
        vmaskmovps %ymm11, %ymm0, (%r13,%rcx,4)                 #lbm.c:180.7
..LN291:
                                # LOE rax rdx rcx rbx rsi rdi r8 r9 r10 r11 r12 r13 r14 r15 xmm5 xmm6 xmm7 ymm1 ymm2 ymm3 ymm4
..B1.24:                        # Preds ..B1.23 ..B1.22
..LN292:
	.loc    1  166  is_stmt 1
        addq      $8, %rcx                                      #lbm.c:166.3
..LN293:
        cmpq      %r14, %rcx                                    #lbm.c:166.3
..LN294:
        jb        ..B1.22       # Prob 82%                      #lbm.c:166.3
..LN295:
                                # LOE rax rdx rcx rbx rsi rdi r8 r9 r10 r11 r12 r13 r14 r15 xmm5 xmm6 xmm7 ymm1 ymm2 ymm3 ymm4
..B1.25:                        # Preds ..B1.24
..LN296:
        movq      264(%rsp), %r10                               #
..LN297:
        movq      272(%rsp), %r11                               #
..LN298:
        movl      320(%rsp), %r8d                               #
..LN299:
        movl      328(%rsp), %edi                               #
..LN300:
        movl      336(%rsp), %esi                               #
..LN301:
                                # LOE rax rdx rbx r9 r10 r11 r12 esi edi r8d xmm6 xmm7
..B1.26:                        # Preds ..B1.25 ..B1.111 ..B1.112
..LN302:
        xorl      %ecx, %ecx                                    #lbm.c:166.3
..LN303:
        lea       1(%r8), %r13d                                 #lbm.c:166.3
..LN304:
        movslq    %r13d, %r13                                   #lbm.c:166.3
..LN305:
        cmpq      %r13, %rax                                    #lbm.c:166.3
..LN306:
        jb        ..B1.35       # Prob 10%                      #lbm.c:166.3
..LN307:
                                # LOE rax rdx rcx rbx r9 r10 r11 r12 esi edi r8d xmm6 xmm7
..B1.27:                        # Preds ..B1.26
..LN308:
	.loc    1  169  is_stmt 1
        imull     %esi, %edi                                    #lbm.c:169.28
..LN309:
        vmovss    280(%rsp), %xmm0                              #lbm.c:169.10
..LN310:
        movslq    %edi, %rdi                                    #lbm.c:169.10
..LN311:
	.loc    1  166  is_stmt 1
        movslq    %r8d, %r8                                     #lbm.c:166.3
..LN312:
        subq      %r8, %rax                                     #lbm.c:166.3
..LN313:
	.loc    1  176  is_stmt 1
        lea       (%r11,%rdi,4), %r13                           #lbm.c:176.7
..LN314:
	.loc    1  174  is_stmt 1
        lea       (%rdx,%rdi,4), %r11                           #lbm.c:174.7
..LN315:
	.loc    1  171  is_stmt 1
        lea       (%r9,%rdi,4), %rdx                            #lbm.c:171.13
..LN316:
	.loc    1  170  is_stmt 1
        lea       (%rbx,%rdi,4), %r9                            #lbm.c:170.13
..LN317:
	.loc    1  169  is_stmt 1
        movq      496(%rsp), %rbx                               #lbm.c:169.10
..LN318:
	.loc    1  175  is_stmt 1
        lea       (%r12,%rdi,4), %r12                           #lbm.c:175.7
..LN319:
	.loc    1  172  is_stmt 1
        lea       (%r10,%rdi,4), %rsi                           #lbm.c:172.13
..LN320:
	.loc    1  169  is_stmt 1
        lea       (%rbx,%rdi,4), %r10                           #lbm.c:169.10
..LN321:
	.loc    1  176  is_stmt 1
        lea       (%r13,%r8,4), %r13                            #lbm.c:176.7
..LN322:
	.loc    1  175  is_stmt 1
        lea       (%r12,%r8,4), %r12                            #lbm.c:175.7
..LN323:
	.loc    1  174  is_stmt 1
        lea       (%r11,%r8,4), %r11                            #lbm.c:174.7
..LN324:
	.loc    1  172  is_stmt 1
        lea       (%rsi,%r8,4), %rsi                            #lbm.c:172.13
..LN325:
	.loc    1  171  is_stmt 1
        lea       (%rdx,%r8,4), %rdx                            #lbm.c:171.13
..LN326:
	.loc    1  170  is_stmt 1
        lea       (%r9,%r8,4), %r9                              #lbm.c:170.13
..LN327:
	.loc    1  169  is_stmt 1
        lea       (%r10,%r8,4), %rbx                            #lbm.c:169.10
..LN328:
                                # LOE rax rdx rcx rbx rsi r9 r11 r12 r13 xmm0 xmm6 xmm7
..B1.28:                        # Preds ..B1.33 ..B1.27
..L20:          # optimization report
                # LOOP WAS UNROLLED BY 1
                # REMAINDER LOOP FOR VECTORIZATION
                # SIMD LOOP
                # %s was not vectorized: unsupported data type
                # VECTORIZATION SPEEDUP COEFFECIENT 3.730469
                # VECTOR TRIP COUNT IS ESTIMATED CONSTANT
                # VECTOR LENGTH 8
                # NORMALIZED VECTORIZATION OVERHEAD 0.562500
..LN329:
        cmpl      $0, (%rbx,%rcx,4)                             #lbm.c:169.10
..LN330:
        jne       ..B1.33       # Prob 50%                      #lbm.c:169.10
..LN331:
                                # LOE rax rdx rcx rbx rsi r9 r11 r12 r13 xmm0 xmm6 xmm7
..B1.29:                        # Preds ..B1.28
..LN332:
	.loc    1  170  is_stmt 1
        vmovss    (%r9,%rcx,4), %xmm1                           #lbm.c:170.13
..LN333:
        vsubss    %xmm7, %xmm1, %xmm2                           #lbm.c:170.49
..LN334:
        vcomiss   %xmm0, %xmm2                                  #lbm.c:170.55
..LN335:
        jbe       ..B1.33       # Prob 50%                      #lbm.c:170.55
..LN336:
                                # LOE rax rdx rcx rbx rsi r9 r11 r12 r13 xmm0 xmm6 xmm7
..B1.30:                        # Preds ..B1.29
..LN337:
	.loc    1  171  is_stmt 1
        vmovss    (%rdx,%rcx,4), %xmm1                          #lbm.c:171.13
..LN338:
        vsubss    %xmm6, %xmm1, %xmm2                           #lbm.c:171.49
..LN339:
        vcomiss   %xmm0, %xmm2                                  #lbm.c:171.55
..LN340:
        jbe       ..B1.33       # Prob 50%                      #lbm.c:171.55
..LN341:
                                # LOE rax rdx rcx rbx rsi r9 r11 r12 r13 xmm0 xmm6 xmm7
..B1.31:                        # Preds ..B1.30
..LN342:
	.loc    1  172  is_stmt 1
        vmovss    (%rsi,%rcx,4), %xmm1                          #lbm.c:172.13
..LN343:
        vsubss    %xmm6, %xmm1, %xmm2                           #lbm.c:172.49
..LN344:
        vcomiss   %xmm0, %xmm2                                  #lbm.c:172.55
..LN345:
        jbe       ..B1.33       # Prob 50%                      #lbm.c:172.55
..LN346:
                                # LOE rax rdx rcx rbx rsi r9 r11 r12 r13 xmm0 xmm6 xmm7
..B1.32:                        # Preds ..B1.31
..LN347:
	.loc    1  174  is_stmt 1
        vaddss    (%r11,%rcx,4), %xmm7, %xmm1                   #lbm.c:174.7
..LN348:
        vmovss    %xmm1, (%r11,%rcx,4)                          #lbm.c:174.7
..LN349:
	.loc    1  175  is_stmt 1
        vaddss    (%r12,%rcx,4), %xmm6, %xmm2                   #lbm.c:175.7
..LN350:
        vmovss    %xmm2, (%r12,%rcx,4)                          #lbm.c:175.7
..LN351:
	.loc    1  176  is_stmt 1
        vaddss    (%r13,%rcx,4), %xmm6, %xmm3                   #lbm.c:176.7
..LN352:
        vmovss    %xmm3, (%r13,%rcx,4)                          #lbm.c:176.7
..LN353:
	.loc    1  178  is_stmt 1
        vmovss    (%r9,%rcx,4), %xmm4                           #lbm.c:178.7
..LN354:
        vsubss    %xmm7, %xmm4, %xmm5                           #lbm.c:178.7
..LN355:
        vmovss    %xmm5, (%r9,%rcx,4)                           #lbm.c:178.7
..LN356:
	.loc    1  179  is_stmt 1
        vmovss    (%rdx,%rcx,4), %xmm8                          #lbm.c:179.7
..LN357:
        vsubss    %xmm6, %xmm8, %xmm9                           #lbm.c:179.7
..LN358:
        vmovss    %xmm9, (%rdx,%rcx,4)                          #lbm.c:179.7
..LN359:
	.loc    1  180  is_stmt 1
        vmovss    (%rsi,%rcx,4), %xmm10                         #lbm.c:180.7
..LN360:
        vsubss    %xmm6, %xmm10, %xmm11                         #lbm.c:180.7
..LN361:
        vmovss    %xmm11, (%rsi,%rcx,4)                         #lbm.c:180.7
..LN362:
                                # LOE rax rdx rcx rbx rsi r9 r11 r12 r13 xmm0 xmm6 xmm7
..B1.33:                        # Preds ..B1.28 ..B1.29 ..B1.30 ..B1.31 ..B1.32
                                #      
..LN363:
	.loc    1  166  is_stmt 1
        incq      %rcx                                          #lbm.c:166.3
..LN364:
        cmpq      %rax, %rcx                                    #lbm.c:166.3
..LN365:
        jb        ..B1.28       # Prob 82%                      #lbm.c:166.3
..LN366:
                                # LOE rax rdx rcx rbx rsi r9 r11 r12 r13 xmm0 xmm6 xmm7
..B1.35:                        # Preds ..B1.33 ..B1.9 ..B1.26
..LN367:
	.loc    1  139  is_stmt 1
        addq      $-32, %rsp                                    #lbm.c:139.17
..LN368:
        movq      %rsp, %rcx                                    #lbm.c:139.17
..LN369:
        vmovups   176(%rsp), %xmm0                              #lbm.c:139.17
..LN370:
        movq      192(%rsp), %rax                               #lbm.c:139.17
..LN371:
        movl      200(%rsp), %edx                               #lbm.c:139.17
..LN372:
        vmovups   %xmm0, (%rcx)                                 #lbm.c:139.17
..LN373:
        movq      %rax, 16(%rcx)                                #lbm.c:139.17
..LN374:
        movl      %edx, 24(%rcx)                                #lbm.c:139.17
..LN375:
        movq      544(%rsp), %rdi                               #lbm.c:139.17
..LN376:
        movq      536(%rsp), %rsi                               #lbm.c:139.17
..LN377:
        movq      528(%rsp), %rdx                               #lbm.c:139.17
..LN378:
        vzeroupper                                              #lbm.c:139.17
..___tag_value_main.21:
..LN379:
#       prop_rebound_collision_avels(const t_param, t_soa *__restrict__, t_soa *__restrict__, int *__restrict__)
        call      prop_rebound_collision_avels                  #lbm.c:139.17
..___tag_value_main.22:
..LN380:
                                # LOE xmm0
..B1.117:                       # Preds ..B1.35
..LN381:
        vmovaps   %xmm0, %xmm4                                  #lbm.c:139.17
..LN382:
        addq      $32, %rsp                                     #lbm.c:139.17
..LN383:
                                # LOE xmm4
..B1.36:                        # Preds ..B1.117
..LN384:
        movl      520(%rsp), %r8d                               #lbm.c:139.3
..LN385:
	.loc    1  114  is_stmt 1
        vmovss    304(%rsp), %xmm1                              #lbm.c:114.5
..LN386:
	.loc    1  150  is_stmt 1
        vmulss    .L_2il0floatpacket.5(%rip), %xmm1, %xmm0      #lbm.c:150.37
..LN387:
	.loc    1  151  is_stmt 1
        vmulss    .L_2il0floatpacket.6(%rip), %xmm1, %xmm2      #lbm.c:151.37
..LN388:
	.loc    1  139  is_stmt 1
        movq      488(%rsp), %rdx                               #lbm.c:139.3
..LN389:
        lea       (%r8,%r8), %r11d                              #lbm.c:139.3
..LN390:
        movslq    %r11d, %r11                                   #lbm.c:139.3
..LN391:
	.loc    1  157  is_stmt 1
        movq      504(%rsp), %rax                               #lbm.c:157.20
..LN392:
	.loc    1  114  is_stmt 1
        movq      304(%rsp), %rcx                               #lbm.c:114.5
..LN393:
        movl      312(%rsp), %ebx                               #lbm.c:114.5
..LN394:
        vmovups   288(%rsp), %xmm7                              #lbm.c:114.5
..LN395:
        vmovss    308(%rsp), %xmm3                              #lbm.c:114.5
..LN396:
        movl      292(%rsp), %r8d                               #lbm.c:114.5
..LN397:
	.loc    1  139  is_stmt 1
        movq      %r11, 528(%rsp)                               #lbm.c:139.3
..LN398:
	.loc    1  154  is_stmt 1
        addl      $-2, %r8d                                     #lbm.c:154.30
..LN399:
	.loc    1  139  is_stmt 1
        vmovss    %xmm4, (%rdx,%r11,4)                          #lbm.c:139.3
..LN400:
	.loc    1  114  is_stmt 1
        movl      288(%rsp), %r11d                              #lbm.c:114.5
..LN401:
        movq      %rcx, 208(%rsp)                               #lbm.c:114.5
..LN402:
        movl      %ebx, 216(%rsp)                               #lbm.c:114.5
..LN403:
        vmovups   %xmm7, 192(%rsp)                              #lbm.c:114.5
..LN404:
	.loc    1  150  is_stmt 1
        vmulss    %xmm3, %xmm0, %xmm7                           #lbm.c:150.52
..LN405:
	.loc    1  151  is_stmt 1
        vmulss    %xmm3, %xmm2, %xmm6                           #lbm.c:151.52
..LN406:
	.loc    1  157  is_stmt 1
        movq      8(%rax), %r9                                  #lbm.c:157.20
..LN407:
	.loc    1  159  is_stmt 1
        movq      24(%rax), %rdx                                #lbm.c:159.20
..LN408:
	.loc    1  161  is_stmt 1
        movq      40(%rax), %rsi                                #lbm.c:161.20
..LN409:
	.loc    1  162  is_stmt 1
        movq      48(%rax), %rbx                                #lbm.c:162.20
..LN410:
	.loc    1  163  is_stmt 1
        movq      56(%rax), %rcx                                #lbm.c:163.20
..LN411:
	.loc    1  164  is_stmt 1
        movq      64(%rax), %rdi                                #lbm.c:164.20
..LN412:
	.loc    1  166  is_stmt 1
        testl     %r11d, %r11d                                  #lbm.c:166.42
..LN413:
        jle       ..B1.62       # Prob 50%                      #lbm.c:166.42
..LN414:
                                # LOE rdx rcx rbx rsi rdi r9 r8d r11d xmm6 xmm7
..B1.37:                        # Preds ..B1.36
..LN415:
        movslq    %r11d, %r12                                   #lbm.c:166.3
..LN416:
        cmpq      $8, %r12                                      #lbm.c:166.3
..LN417:
        jl        ..B1.110      # Prob 10%                      #lbm.c:166.3
..LN418:
                                # LOE rdx rcx rbx rsi rdi r9 r12 r8d r11d xmm6 xmm7
..B1.38:                        # Preds ..B1.37
..LN419:
	.loc    1  169  is_stmt 1
        movl      %r8d, %r13d                                   #lbm.c:169.28
..LN420:
        imull     %r11d, %r13d                                  #lbm.c:169.28
..LN421:
	.loc    1  180  is_stmt 1
        movslq    %r13d, %r13                                   #lbm.c:180.7
..LN422:
        lea       (%rcx,%r13,4), %r10                           #lbm.c:180.7
..LN423:
        movq      %r10, 384(%rsp)                               #lbm.c:180.7
..LN424:
	.loc    1  166  is_stmt 1
        andq      $31, %r10                                     #lbm.c:166.3
..LN425:
        movl      %r10d, %eax                                   #lbm.c:166.3
..LN426:
        negl      %eax                                          #lbm.c:166.3
..LN427:
        addl      $32, %eax                                     #lbm.c:166.3
..LN428:
        shrl      $2, %eax                                      #lbm.c:166.3
..LN429:
        testl     %r10d, %r10d                                  #lbm.c:166.3
..LN430:
        cmovne    %eax, %r10d                                   #lbm.c:166.3
..LN431:
        lea       8(%r10), %r14d                                #lbm.c:166.3
..LN432:
        cmpq      %r14, %r12                                    #lbm.c:166.3
..LN433:
        jl        ..B1.109      # Prob 10%                      #lbm.c:166.3
..LN434:
                                # LOE rdx rcx rbx rsi rdi r9 r10 r12 r13 r8d r11d xmm6 xmm7
..B1.39:                        # Preds ..B1.38
..LN435:
        movl      %r11d, %eax                                   #lbm.c:166.3
..LN436:
        xorl      %r14d, %r14d                                  #lbm.c:166.3
..LN437:
        subl      %r10d, %eax                                   #lbm.c:166.3
..LN438:
        andl      $7, %eax                                      #lbm.c:166.3
..LN439:
        negl      %eax                                          #lbm.c:166.3
..LN440:
        addl      %r11d, %eax                                   #lbm.c:166.3
..LN441:
        testq     %r10, %r10                                    #lbm.c:166.3
..LN442:
        jbe       ..B1.48       # Prob 10%                      #lbm.c:166.3
..LN443:
                                # LOE rdx rcx rbx rsi rdi r9 r10 r12 r13 r14 eax r8d r11d xmm6 xmm7
..B1.40:                        # Preds ..B1.39
..LN444:
	.loc    1  169  is_stmt 1
        movq      %rcx, 344(%rsp)                               #lbm.c:169.10
..LN445:
	.loc    1  176  is_stmt 1
        lea       (%rdi,%r13,4), %r15                           #lbm.c:176.7
..LN446:
        movq      %r15, 464(%rsp)                               #lbm.c:176.7
..LN447:
	.loc    1  175  is_stmt 1
        lea       (%rsi,%r13,4), %r15                           #lbm.c:175.7
..LN448:
        movq      %r15, 408(%rsp)                               #lbm.c:175.7
..LN449:
	.loc    1  174  is_stmt 1
        lea       (%r9,%r13,4), %r15                            #lbm.c:174.7
..LN450:
        movq      %r15, 424(%rsp)                               #lbm.c:174.7
..LN451:
	.loc    1  171  is_stmt 1
        lea       (%rbx,%r13,4), %r15                           #lbm.c:171.13
..LN452:
        movq      %r15, 392(%rsp)                               #lbm.c:171.13
..LN453:
	.loc    1  170  is_stmt 1
        lea       (%rdx,%r13,4), %r15                           #lbm.c:170.13
..LN454:
        movq      %r15, 448(%rsp)                               #lbm.c:170.13
..LN455:
	.loc    1  169  is_stmt 1
        movq      496(%rsp), %r15                               #lbm.c:169.10
..LN456:
        movq      %rdi, 352(%rsp)                               #lbm.c:169.10
..LN457:
        movl      %eax, 360(%rsp)                               #lbm.c:169.10
..LN458:
        movl      %r8d, 368(%rsp)                               #lbm.c:169.10
..LN459:
        lea       (%r15,%r13,4), %r13                           #lbm.c:169.10
..LN460:
        movl      %r11d, 376(%rsp)                              #lbm.c:169.10
..LN461:
        vmovss    280(%rsp), %xmm0                              #lbm.c:169.10
..LN462:
        movq      448(%rsp), %rax                               #lbm.c:169.10
..LN463:
        movq      392(%rsp), %rcx                               #lbm.c:169.10
..LN464:
        movq      424(%rsp), %rdi                               #lbm.c:169.10
..LN465:
        movq      408(%rsp), %r8                                #lbm.c:169.10
..LN466:
        movq      464(%rsp), %r11                               #lbm.c:169.10
..LN467:
        movq      384(%rsp), %r15                               #lbm.c:169.10
..LN468:
                                # LOE rax rdx rcx rbx rsi rdi r8 r9 r10 r11 r12 r13 r14 r15 xmm0 xmm6 xmm7
..B1.41:                        # Preds ..B1.46 ..B1.40
..L23:          # optimization report
                # LOOP WAS UNROLLED BY 1
                # PEELED LOOP FOR VECTORIZATION
                # SIMD LOOP
                # VECTORIZATION SPEEDUP COEFFECIENT 3.730469
                # VECTOR TRIP COUNT IS ESTIMATED CONSTANT
                # VECTOR LENGTH 8
                # NORMALIZED VECTORIZATION OVERHEAD 0.562500
..LN469:
        cmpl      $0, (%r13,%r14,4)                             #lbm.c:169.10
..LN470:
        jne       ..B1.46       # Prob 50%                      #lbm.c:169.10
..LN471:
                                # LOE rax rdx rcx rbx rsi rdi r8 r9 r10 r11 r12 r13 r14 r15 xmm0 xmm6 xmm7
..B1.42:                        # Preds ..B1.41
..LN472:
	.loc    1  170  is_stmt 1
        vmovss    (%rax,%r14,4), %xmm1                          #lbm.c:170.13
..LN473:
        vsubss    %xmm7, %xmm1, %xmm2                           #lbm.c:170.49
..LN474:
        vcomiss   %xmm0, %xmm2                                  #lbm.c:170.55
..LN475:
        jbe       ..B1.46       # Prob 50%                      #lbm.c:170.55
..LN476:
                                # LOE rax rdx rcx rbx rsi rdi r8 r9 r10 r11 r12 r13 r14 r15 xmm0 xmm6 xmm7
..B1.43:                        # Preds ..B1.42
..LN477:
	.loc    1  171  is_stmt 1
        vmovss    (%rcx,%r14,4), %xmm1                          #lbm.c:171.13
..LN478:
        vsubss    %xmm6, %xmm1, %xmm2                           #lbm.c:171.49
..LN479:
        vcomiss   %xmm0, %xmm2                                  #lbm.c:171.55
..LN480:
        jbe       ..B1.46       # Prob 50%                      #lbm.c:171.55
..LN481:
                                # LOE rax rdx rcx rbx rsi rdi r8 r9 r10 r11 r12 r13 r14 r15 xmm0 xmm6 xmm7
..B1.44:                        # Preds ..B1.43
..LN482:
	.loc    1  172  is_stmt 1
        vmovss    (%r15,%r14,4), %xmm1                          #lbm.c:172.13
..LN483:
        vsubss    %xmm6, %xmm1, %xmm2                           #lbm.c:172.49
..LN484:
        vcomiss   %xmm0, %xmm2                                  #lbm.c:172.55
..LN485:
        jbe       ..B1.46       # Prob 50%                      #lbm.c:172.55
..LN486:
                                # LOE rax rdx rcx rbx rsi rdi r8 r9 r10 r11 r12 r13 r14 r15 xmm0 xmm6 xmm7
..B1.45:                        # Preds ..B1.44
..LN487:
	.loc    1  174  is_stmt 1
        vaddss    (%rdi,%r14,4), %xmm7, %xmm1                   #lbm.c:174.7
..LN488:
        vmovss    %xmm1, (%rdi,%r14,4)                          #lbm.c:174.7
..LN489:
	.loc    1  175  is_stmt 1
        vaddss    (%r8,%r14,4), %xmm6, %xmm2                    #lbm.c:175.7
..LN490:
        vmovss    %xmm2, (%r8,%r14,4)                           #lbm.c:175.7
..LN491:
	.loc    1  176  is_stmt 1
        vaddss    (%r11,%r14,4), %xmm6, %xmm3                   #lbm.c:176.7
..LN492:
        vmovss    %xmm3, (%r11,%r14,4)                          #lbm.c:176.7
..LN493:
	.loc    1  178  is_stmt 1
        vmovss    (%rax,%r14,4), %xmm4                          #lbm.c:178.7
..LN494:
        vsubss    %xmm7, %xmm4, %xmm5                           #lbm.c:178.7
..LN495:
        vmovss    %xmm5, (%rax,%r14,4)                          #lbm.c:178.7
..LN496:
	.loc    1  179  is_stmt 1
        vmovss    (%rcx,%r14,4), %xmm8                          #lbm.c:179.7
..LN497:
        vsubss    %xmm6, %xmm8, %xmm9                           #lbm.c:179.7
..LN498:
        vmovss    %xmm9, (%rcx,%r14,4)                          #lbm.c:179.7
..LN499:
	.loc    1  180  is_stmt 1
        vmovss    (%r15,%r14,4), %xmm10                         #lbm.c:180.7
..LN500:
        vsubss    %xmm6, %xmm10, %xmm11                         #lbm.c:180.7
..LN501:
        vmovss    %xmm11, (%r15,%r14,4)                         #lbm.c:180.7
..LN502:
                                # LOE rax rdx rcx rbx rsi rdi r8 r9 r10 r11 r12 r13 r14 r15 xmm0 xmm6 xmm7
..B1.46:                        # Preds ..B1.41 ..B1.42 ..B1.43 ..B1.44 ..B1.45
                                #      
..LN503:
	.loc    1  166  is_stmt 1
        incq      %r14                                          #lbm.c:166.3
..LN504:
        cmpq      %r10, %r14                                    #lbm.c:166.3
..LN505:
        jb        ..B1.41       # Prob 82%                      #lbm.c:166.3
..LN506:
                                # LOE rax rdx rcx rbx rsi rdi r8 r9 r10 r11 r12 r13 r14 r15 xmm0 xmm6 xmm7
..B1.47:                        # Preds ..B1.46
..LN507:
        movq      344(%rsp), %rcx                               #
..LN508:
        movq      352(%rsp), %rdi                               #
..LN509:
        movl      360(%rsp), %eax                               #
..LN510:
        movl      368(%rsp), %r8d                               #
..LN511:
        movl      376(%rsp), %r11d                              #
..LN512:
                                # LOE rdx rcx rbx rsi rdi r9 r10 r12 eax r8d r11d xmm6 xmm7
..B1.48:                        # Preds ..B1.47 ..B1.39
..LN513:
        movq      %r12, 136(%rsp)                               #
..LN514:
	.loc    1  169  is_stmt 1
        movl      %r8d, %r12d                                   #lbm.c:169.28
..LN515:
        imull     %r11d, %r12d                                  #lbm.c:169.28
..LN516:
	.loc    1  162  is_stmt 1
        movq      %rbx, %r14                                    #lbm.c:162.38
..LN517:
	.loc    1  150  is_stmt 1
        vshufps   $0, %xmm7, %xmm7, %xmm3                       #lbm.c:150.18
..LN518:
	.loc    1  151  is_stmt 1
        vshufps   $0, %xmm6, %xmm6, %xmm0                       #lbm.c:151.18
..LN519:
	.loc    1  169  is_stmt 1
        vpxor     %xmm5, %xmm5, %xmm5                           #lbm.c:169.10
..LN520:
	.loc    1  172  is_stmt 1
        vmovdqu   .L_2il0floatpacket.9(%rip), %ymm1             #lbm.c:172.55
..LN521:
        movq      %rdx, 120(%rsp)                               #
..LN522:
	.loc    1  163  is_stmt 1
        movq      %rcx, %r13                                    #lbm.c:163.38
..LN523:
	.loc    1  164  is_stmt 1
        movq      %rdi, %r15                                    #lbm.c:164.38
..LN524:
	.loc    1  169  is_stmt 1
        movslq    %r12d, %r12                                   #lbm.c:169.10
..LN525:
        movq      %rsi, 112(%rsp)                               #
..LN526:
        movq      %r9, 128(%rsp)                                #
..LN527:
	.loc    1  170  is_stmt 1
        lea       (%rdx,%r12,4), %rdx                           #lbm.c:170.13
..LN528:
	.loc    1  174  is_stmt 1
        lea       (%r9,%r12,4), %r9                             #lbm.c:174.7
..LN529:
	.loc    1  170  is_stmt 1
        movq      %rdx, 56(%rsp)                                #lbm.c:170.13
..LN530:
	.loc    1  175  is_stmt 1
        lea       (%rsi,%r12,4), %rsi                           #lbm.c:175.7
..LN531:
	.loc    1  169  is_stmt 1
        movq      496(%rsp), %rdx                               #lbm.c:169.10
..LN532:
	.loc    1  171  is_stmt 1
        lea       (%r14,%r12,4), %r14                           #lbm.c:171.13
..LN533:
	.loc    1  174  is_stmt 1
        movq      %r9, 72(%rsp)                                 #lbm.c:174.7
..LN534:
	.loc    1  172  is_stmt 1
        lea       (%r13,%r12,4), %r13                           #lbm.c:172.13
..LN535:
	.loc    1  175  is_stmt 1
        movq      %rsi, 64(%rsp)                                #lbm.c:175.7
..LN536:
	.loc    1  176  is_stmt 1
        lea       (%r15,%r12,4), %r15                           #lbm.c:176.7
..LN537:
	.loc    1  171  is_stmt 1
        movq      %r14, 48(%rsp)                                #lbm.c:171.13
..LN538:
	.loc    1  169  is_stmt 1
        lea       (%rdx,%r12,4), %r14                           #lbm.c:169.10
..LN539:
	.loc    1  172  is_stmt 1
        movq      %r13, 40(%rsp)                                #lbm.c:172.13
..LN540:
	.loc    1  166  is_stmt 1
        movq      %rcx, 344(%rsp)                               #lbm.c:166.3
..LN541:
        movq      %rdi, 352(%rsp)                               #lbm.c:166.3
..LN542:
        movl      %eax, 360(%rsp)                               #lbm.c:166.3
..LN543:
        movl      %r8d, 368(%rsp)                               #lbm.c:166.3
..LN544:
        movl      %r11d, 376(%rsp)                              #lbm.c:166.3
..LN545:
        movslq    %eax, %r13                                    #lbm.c:166.3
..LN546:
        movq      136(%rsp), %r12                               #lbm.c:166.3
..LN547:
        movq      128(%rsp), %r9                                #lbm.c:166.3
..LN548:
        movq      120(%rsp), %rdx                               #lbm.c:166.3
..LN549:
        movq      112(%rsp), %rsi                               #lbm.c:166.3
..LN550:
        movq      40(%rsp), %rax                                #lbm.c:166.3
..LN551:
        movq      48(%rsp), %rcx                                #lbm.c:166.3
..LN552:
        movq      56(%rsp), %rdi                                #lbm.c:166.3
..LN553:
        movq      %r15, %r8                                     #lbm.c:166.3
..LN554:
        movq      64(%rsp), %r11                                #lbm.c:166.3
..LN555:
        movq      72(%rsp), %r15                                #lbm.c:166.3
..LN556:
	.loc    1  150  is_stmt 1
        vinsertf128 $1, %xmm3, %ymm3, %ymm4                     #lbm.c:150.18
..LN557:
	.loc    1  170  is_stmt 1
        vxorps    %ymm3, %ymm3, %ymm3                           #lbm.c:170.55
..LN558:
	.loc    1  151  is_stmt 1
        vinsertf128 $1, %xmm0, %ymm0, %ymm2                     #lbm.c:151.18
..LN559:
                                # LOE rax rdx rcx rbx rsi rdi r8 r9 r10 r11 r12 r13 r14 r15 xmm5 xmm6 xmm7 ymm1 ymm2 ymm3 ymm4
..B1.49:                        # Preds ..B1.51 ..B1.48
..L24:          # optimization report
                # LOOP WAS UNROLLED BY 1
                # LOOP WAS VECTORIZED
                # SIMD LOOP
                # VECTORIZATION SPEEDUP COEFFECIENT 3.730469
                # VECTOR TRIP COUNT IS ESTIMATED CONSTANT
                # VECTOR LENGTH 8
                # NORMALIZED VECTORIZATION OVERHEAD 0.562500
                # MAIN VECTOR TYPE: 32-bits floating point
..LN560:
	.loc    1  169  is_stmt 1
        vpcmpeqd  (%r14,%r10,4), %xmm5, %xmm0                   #lbm.c:169.10
..LN561:
        vpcmpeqd  16(%r14,%r10,4), %xmm5, %xmm8                 #lbm.c:169.10
..LN562:
        vinsertf128 $1, %xmm8, %ymm0, %ymm11                    #lbm.c:169.10
..LN563:
	.loc    1  170  is_stmt 1
        vmaskmovps (%rdi,%r10,4), %ymm11, %ymm9                 #lbm.c:170.13
..LN564:
        vsubps    %ymm4, %ymm9, %ymm10                          #lbm.c:170.49
..LN565:
        vcmpgtps  %ymm3, %ymm10, %ymm12                         #lbm.c:170.55
..LN566:
        vandps    %ymm12, %ymm11, %ymm15                        #lbm.c:170.55
..LN567:
	.loc    1  171  is_stmt 1
        vmaskmovps (%rcx,%r10,4), %ymm15, %ymm13                #lbm.c:171.13
..LN568:
        vsubps    %ymm2, %ymm13, %ymm14                         #lbm.c:171.49
..LN569:
        vcmpgtps  %ymm3, %ymm14, %ymm0                          #lbm.c:171.55
..LN570:
        vandps    %ymm0, %ymm15, %ymm10                         #lbm.c:171.55
..LN571:
	.loc    1  172  is_stmt 1
        vmaskmovps (%rax,%r10,4), %ymm10, %ymm8                 #lbm.c:172.13
..LN572:
        vsubps    %ymm2, %ymm8, %ymm9                           #lbm.c:172.49
..LN573:
        vcmpgtps  %ymm3, %ymm9, %ymm11                          #lbm.c:172.55
..LN574:
        vandps    %ymm11, %ymm10, %ymm0                         #lbm.c:172.55
..LN575:
        vptest    %ymm1, %ymm0                                  #lbm.c:172.55
..LN576:
        je        ..B1.51       # Prob 20%                      #lbm.c:172.55
..LN577:
                                # LOE rax rdx rcx rbx rsi rdi r8 r9 r10 r11 r12 r13 r14 r15 xmm5 xmm6 xmm7 ymm0 ymm1 ymm2 ymm3 ymm4
..B1.50:                        # Preds ..B1.49
..LN578:
	.loc    1  174  is_stmt 1
        vmaskmovps (%r15,%r10,4), %ymm0, %ymm8                  #lbm.c:174.7
..LN579:
        vaddps    %ymm4, %ymm8, %ymm9                           #lbm.c:174.7
..LN580:
        vmaskmovps %ymm9, %ymm0, (%r15,%r10,4)                  #lbm.c:174.7
..LN581:
	.loc    1  175  is_stmt 1
        vmaskmovps (%r11,%r10,4), %ymm0, %ymm10                 #lbm.c:175.7
..LN582:
        vaddps    %ymm2, %ymm10, %ymm11                         #lbm.c:175.7
..LN583:
        vmaskmovps %ymm11, %ymm0, (%r11,%r10,4)                 #lbm.c:175.7
..LN584:
	.loc    1  176  is_stmt 1
        vmaskmovps (%r8,%r10,4), %ymm0, %ymm12                  #lbm.c:176.7
..LN585:
        vaddps    %ymm2, %ymm12, %ymm13                         #lbm.c:176.7
..LN586:
        vmaskmovps %ymm13, %ymm0, (%r8,%r10,4)                  #lbm.c:176.7
..LN587:
	.loc    1  178  is_stmt 1
        vmaskmovps (%rdi,%r10,4), %ymm0, %ymm14                 #lbm.c:178.7
..LN588:
        vsubps    %ymm4, %ymm14, %ymm15                         #lbm.c:178.7
..LN589:
        vmaskmovps %ymm15, %ymm0, (%rdi,%r10,4)                 #lbm.c:178.7
..LN590:
	.loc    1  179  is_stmt 1
        vmaskmovps (%rcx,%r10,4), %ymm0, %ymm8                  #lbm.c:179.7
..LN591:
        vsubps    %ymm2, %ymm8, %ymm9                           #lbm.c:179.7
..LN592:
        vmaskmovps %ymm9, %ymm0, (%rcx,%r10,4)                  #lbm.c:179.7
..LN593:
	.loc    1  180  is_stmt 1
        vmaskmovps (%rax,%r10,4), %ymm0, %ymm10                 #lbm.c:180.7
..LN594:
        vsubps    %ymm2, %ymm10, %ymm11                         #lbm.c:180.7
..LN595:
        vmaskmovps %ymm11, %ymm0, (%rax,%r10,4)                 #lbm.c:180.7
..LN596:
                                # LOE rax rdx rcx rbx rsi rdi r8 r9 r10 r11 r12 r13 r14 r15 xmm5 xmm6 xmm7 ymm1 ymm2 ymm3 ymm4
..B1.51:                        # Preds ..B1.50 ..B1.49
..LN597:
	.loc    1  166  is_stmt 1
        addq      $8, %r10                                      #lbm.c:166.3
..LN598:
        cmpq      %r13, %r10                                    #lbm.c:166.3
..LN599:
        jb        ..B1.49       # Prob 82%                      #lbm.c:166.3
..LN600:
                                # LOE rax rdx rcx rbx rsi rdi r8 r9 r10 r11 r12 r13 r14 r15 xmm5 xmm6 xmm7 ymm1 ymm2 ymm3 ymm4
..B1.52:                        # Preds ..B1.51
..LN601:
        movq      344(%rsp), %rcx                               #
..LN602:
        movq      352(%rsp), %rdi                               #
..LN603:
        movl      360(%rsp), %eax                               #
..LN604:
        movl      368(%rsp), %r8d                               #
..LN605:
        movl      376(%rsp), %r11d                              #
..LN606:
                                # LOE rdx rcx rbx rsi rdi r9 r12 eax r8d r11d xmm6 xmm7
..B1.53:                        # Preds ..B1.52 ..B1.109 ..B1.110
..LN607:
        xorl      %r10d, %r10d                                  #lbm.c:166.3
..LN608:
        lea       1(%rax), %r13d                                #lbm.c:166.3
..LN609:
        movslq    %r13d, %r13                                   #lbm.c:166.3
..LN610:
        cmpq      %r13, %r12                                    #lbm.c:166.3
..LN611:
        jb        ..B1.62       # Prob 10%                      #lbm.c:166.3
..LN612:
                                # LOE rdx rcx rbx rsi rdi r9 r10 r12 eax r8d r11d xmm6 xmm7
..B1.54:                        # Preds ..B1.53
..LN613:
	.loc    1  169  is_stmt 1
        imull     %r11d, %r8d                                   #lbm.c:169.28
..LN614:
        vmovss    280(%rsp), %xmm0                              #lbm.c:169.10
..LN615:
        movslq    %r8d, %r8                                     #lbm.c:169.10
..LN616:
	.loc    1  166  is_stmt 1
        movslq    %eax, %rax                                    #lbm.c:166.3
..LN617:
        subq      %rax, %r12                                    #lbm.c:166.3
..LN618:
	.loc    1  175  is_stmt 1
        lea       (%rsi,%r8,4), %r11                            #lbm.c:175.7
..LN619:
	.loc    1  172  is_stmt 1
        lea       (%rcx,%r8,4), %rsi                            #lbm.c:172.13
..LN620:
	.loc    1  171  is_stmt 1
        lea       (%rbx,%r8,4), %rcx                            #lbm.c:171.13
..LN621:
	.loc    1  169  is_stmt 1
        movq      496(%rsp), %rbx                               #lbm.c:169.10
..LN622:
	.loc    1  176  is_stmt 1
        lea       (%rdi,%r8,4), %r13                            #lbm.c:176.7
..LN623:
	.loc    1  174  is_stmt 1
        lea       (%r9,%r8,4), %rdi                             #lbm.c:174.7
..LN624:
	.loc    1  170  is_stmt 1
        lea       (%rdx,%r8,4), %rdx                            #lbm.c:170.13
..LN625:
	.loc    1  169  is_stmt 1
        lea       (%rbx,%r8,4), %r9                             #lbm.c:169.10
..LN626:
	.loc    1  176  is_stmt 1
        lea       (%r13,%rax,4), %r13                           #lbm.c:176.7
..LN627:
	.loc    1  175  is_stmt 1
        lea       (%r11,%rax,4), %r11                           #lbm.c:175.7
..LN628:
	.loc    1  174  is_stmt 1
        lea       (%rdi,%rax,4), %rdi                           #lbm.c:174.7
..LN629:
	.loc    1  172  is_stmt 1
        lea       (%rsi,%rax,4), %rsi                           #lbm.c:172.13
..LN630:
	.loc    1  171  is_stmt 1
        lea       (%rcx,%rax,4), %rcx                           #lbm.c:171.13
..LN631:
	.loc    1  170  is_stmt 1
        lea       (%rdx,%rax,4), %rdx                           #lbm.c:170.13
..LN632:
	.loc    1  169  is_stmt 1
        lea       (%r9,%rax,4), %rax                            #lbm.c:169.10
..LN633:
                                # LOE rax rdx rcx rsi rdi r10 r11 r12 r13 xmm0 xmm6 xmm7
..B1.55:                        # Preds ..B1.60 ..B1.54
..L25:          # optimization report
                # LOOP WAS UNROLLED BY 1
                # REMAINDER LOOP FOR VECTORIZATION
                # SIMD LOOP
                # %s was not vectorized: unsupported data type
                # VECTORIZATION SPEEDUP COEFFECIENT 3.730469
                # VECTOR TRIP COUNT IS ESTIMATED CONSTANT
                # VECTOR LENGTH 8
                # NORMALIZED VECTORIZATION OVERHEAD 0.562500
..LN634:
        cmpl      $0, (%rax,%r10,4)                             #lbm.c:169.10
..LN635:
        jne       ..B1.60       # Prob 50%                      #lbm.c:169.10
..LN636:
                                # LOE rax rdx rcx rsi rdi r10 r11 r12 r13 xmm0 xmm6 xmm7
..B1.56:                        # Preds ..B1.55
..LN637:
	.loc    1  170  is_stmt 1
        vmovss    (%rdx,%r10,4), %xmm1                          #lbm.c:170.13
..LN638:
        vsubss    %xmm7, %xmm1, %xmm2                           #lbm.c:170.49
..LN639:
        vcomiss   %xmm0, %xmm2                                  #lbm.c:170.55
..LN640:
        jbe       ..B1.60       # Prob 50%                      #lbm.c:170.55
..LN641:
                                # LOE rax rdx rcx rsi rdi r10 r11 r12 r13 xmm0 xmm6 xmm7
..B1.57:                        # Preds ..B1.56
..LN642:
	.loc    1  171  is_stmt 1
        vmovss    (%rcx,%r10,4), %xmm1                          #lbm.c:171.13
..LN643:
        vsubss    %xmm6, %xmm1, %xmm2                           #lbm.c:171.49
..LN644:
        vcomiss   %xmm0, %xmm2                                  #lbm.c:171.55
..LN645:
        jbe       ..B1.60       # Prob 50%                      #lbm.c:171.55
..LN646:
                                # LOE rax rdx rcx rsi rdi r10 r11 r12 r13 xmm0 xmm6 xmm7
..B1.58:                        # Preds ..B1.57
..LN647:
	.loc    1  172  is_stmt 1
        vmovss    (%rsi,%r10,4), %xmm1                          #lbm.c:172.13
..LN648:
        vsubss    %xmm6, %xmm1, %xmm2                           #lbm.c:172.49
..LN649:
        vcomiss   %xmm0, %xmm2                                  #lbm.c:172.55
..LN650:
        jbe       ..B1.60       # Prob 50%                      #lbm.c:172.55
..LN651:
                                # LOE rax rdx rcx rsi rdi r10 r11 r12 r13 xmm0 xmm6 xmm7
..B1.59:                        # Preds ..B1.58
..LN652:
	.loc    1  174  is_stmt 1
        vaddss    (%rdi,%r10,4), %xmm7, %xmm1                   #lbm.c:174.7
..LN653:
        vmovss    %xmm1, (%rdi,%r10,4)                          #lbm.c:174.7
..LN654:
	.loc    1  175  is_stmt 1
        vaddss    (%r11,%r10,4), %xmm6, %xmm2                   #lbm.c:175.7
..LN655:
        vmovss    %xmm2, (%r11,%r10,4)                          #lbm.c:175.7
..LN656:
	.loc    1  176  is_stmt 1
        vaddss    (%r13,%r10,4), %xmm6, %xmm3                   #lbm.c:176.7
..LN657:
        vmovss    %xmm3, (%r13,%r10,4)                          #lbm.c:176.7
..LN658:
	.loc    1  178  is_stmt 1
        vmovss    (%rdx,%r10,4), %xmm4                          #lbm.c:178.7
..LN659:
        vsubss    %xmm7, %xmm4, %xmm5                           #lbm.c:178.7
..LN660:
        vmovss    %xmm5, (%rdx,%r10,4)                          #lbm.c:178.7
..LN661:
	.loc    1  179  is_stmt 1
        vmovss    (%rcx,%r10,4), %xmm8                          #lbm.c:179.7
..LN662:
        vsubss    %xmm6, %xmm8, %xmm9                           #lbm.c:179.7
..LN663:
        vmovss    %xmm9, (%rcx,%r10,4)                          #lbm.c:179.7
..LN664:
	.loc    1  180  is_stmt 1
        vmovss    (%rsi,%r10,4), %xmm10                         #lbm.c:180.7
..LN665:
        vsubss    %xmm6, %xmm10, %xmm11                         #lbm.c:180.7
..LN666:
        vmovss    %xmm11, (%rsi,%r10,4)                         #lbm.c:180.7
..LN667:
                                # LOE rax rdx rcx rsi rdi r10 r11 r12 r13 xmm0 xmm6 xmm7
..B1.60:                        # Preds ..B1.58 ..B1.57 ..B1.56 ..B1.55 ..B1.59
                                #      
..LN668:
	.loc    1  166  is_stmt 1
        incq      %r10                                          #lbm.c:166.3
..LN669:
        cmpq      %r12, %r10                                    #lbm.c:166.3
..LN670:
        jb        ..B1.55       # Prob 82%                      #lbm.c:166.3
..LN671:
                                # LOE rax rdx rcx rsi rdi r10 r11 r12 r13 xmm0 xmm6 xmm7
..B1.62:                        # Preds ..B1.60 ..B1.53 ..B1.36
..LN672:
	.loc    1  139  is_stmt 1
        addq      $-32, %rsp                                    #lbm.c:139.17
..LN673:
        movq      %rsp, %rcx                                    #lbm.c:139.17
..LN674:
        vmovups   224(%rsp), %xmm0                              #lbm.c:139.17
..LN675:
        movq      240(%rsp), %rax                               #lbm.c:139.17
..LN676:
        movl      248(%rsp), %edx                               #lbm.c:139.17
..LN677:
        vmovups   %xmm0, (%rcx)                                 #lbm.c:139.17
..LN678:
        movq      %rax, 16(%rcx)                                #lbm.c:139.17
..LN679:
        movl      %edx, 24(%rcx)                                #lbm.c:139.17
..LN680:
        movq      536(%rsp), %rdi                               #lbm.c:139.17
..LN681:
        movq      544(%rsp), %rsi                               #lbm.c:139.17
..LN682:
        movq      528(%rsp), %rdx                               #lbm.c:139.17
..LN683:
        vzeroupper                                              #lbm.c:139.17
..___tag_value_main.26:
..LN684:
#       prop_rebound_collision_avels(const t_param, t_soa *__restrict__, t_soa *__restrict__, int *__restrict__)
        call      prop_rebound_collision_avels                  #lbm.c:139.17
..___tag_value_main.27:
..LN685:
                                # LOE xmm0
..B1.118:                       # Preds ..B1.62
..LN686:
        addq      $32, %rsp                                     #lbm.c:139.17
..LN687:
                                # LOE xmm0
..B1.63:                        # Preds ..B1.118
..LN688:
        movq      488(%rsp), %rax                               #lbm.c:139.3
..LN689:
        movq      528(%rsp), %rdx                               #lbm.c:139.3
..LN690:
	.loc    1  112  is_stmt 1
        movl      520(%rsp), %ecx                               #lbm.c:112.3
..LN691:
        incl      %ecx                                          #lbm.c:112.3
..LN692:
	.loc    1  139  is_stmt 1
        vmovss    %xmm0, 4(%rax,%rdx,4)                         #lbm.c:139.3
..LN693:
	.loc    1  112  is_stmt 1
        movl      %ecx, 520(%rsp)                               #lbm.c:112.3
..LN694:
        cmpl      480(%rsp), %ecx                               #lbm.c:112.3
..LN695:
        jb        ..B1.9        # Prob 82%                      #lbm.c:112.3
..LN696:
                                # LOE
..B1.64:                        # Preds ..B1.63
..LN697:
        vmovss    280(%rsp), %xmm4                              #
..LN698:
                                # LOE xmm4
..B1.65:                        # Preds ..B1.7 ..B1.64
..LN699:
	.loc    1  117  is_stmt 1
        xorl      %esi, %esi                                    #lbm.c:117.3
..LN700:
        lea       176(%rsp), %rdi                               #lbm.c:117.3
..LN701:
        vmovss    %xmm4, 104(%rdi)                              #lbm.c:117.3
..LN702:
#       gettimeofday(struct timeval *__restrict__, __timezone_ptr_t)
        call      gettimeofday                                  #lbm.c:117.3
..LN703:
                                # LOE
..B1.66:                        # Preds ..B1.65
..LN704:
	.loc    1  118  is_stmt 1
        vxorpd    %xmm0, %xmm0, %xmm0                           #lbm.c:118.26
..LN705:
        vxorpd    %xmm1, %xmm1, %xmm1                           #lbm.c:118.9
..LN706:
        vcvtsi2sdq 184(%rsp), %xmm0, %xmm0                      #lbm.c:118.26
..LN707:
        vcvtsi2sdq 176(%rsp), %xmm1, %xmm1                      #lbm.c:118.9
..LN708:
        vmulsd    .L_2il0floatpacket.4(%rip), %xmm0, %xmm2      #lbm.c:118.43
..LN709:
	.loc    1  119  is_stmt 1
        xorl      %edi, %edi                                    #lbm.c:119.3
..LN710:
        lea       (%rsp), %rsi                                  #lbm.c:119.3
..LN711:
        vmovss    280(%rsi), %xmm4                              #
..LN712:
	.loc    1  118  is_stmt 1
        vaddsd    %xmm2, %xmm1, %xmm3                           #lbm.c:118.43
..LN713:
        vmovsd    %xmm3, 264(%rsi)                              #lbm.c:118.43
..LN714:
	.loc    1  119  is_stmt 1
        vmovss    %xmm4, 280(%rsi)                              #lbm.c:119.3
..LN715:
#       getrusage(__rusage_who_t, struct rusage *)
        call      getrusage                                     #lbm.c:119.3
..LN716:
                                # LOE
..B1.67:                        # Preds ..B1.66
..LN717:
	.loc    1  122  is_stmt 1
        movq      16(%rsp), %rbx                                #lbm.c:122.12
..LN718:
	.loc    1  126  is_stmt 1
        movl      $il0_peep_printf_format_0, %edi               #lbm.c:126.3
..LN719:
	.loc    1  122  is_stmt 1
        movq      24(%rsp), %r14                                #lbm.c:122.12
..LN720:
        vmovss    280(%rsp), %xmm4                              #
..LN721:
	.loc    1  120  is_stmt 1
        movq      (%rsp), %r13                                  #lbm.c:120.12
..LN722:
        movq      8(%rsp), %r12                                 #lbm.c:120.12
..LN723:
	.loc    1  122  is_stmt 1
        movq      %rbx, 176(%rsp)                               #lbm.c:122.3
..LN724:
        movq      %r14, 184(%rsp)                               #lbm.c:122.3
..LN725:
	.loc    1  126  is_stmt 1
        vmovss    %xmm4, 280(%rsp)                              #lbm.c:126.3
..LN726:
        call      puts                                          #lbm.c:126.3
..LN727:
                                # LOE rbx r12 r13 r14
..B1.68:                        # Preds ..B1.67
..LN728:
	.loc    1  574  is_stmt 1
        vmovss    .L_2il0floatpacket.8(%rip), %xmm0             #lbm.c:574.40
..LN729:
        vdivss    312(%rsp), %xmm0, %xmm1                       #lbm.c:574.46
..LN730:
	.loc    1  127  is_stmt 1
        vmovups   288(%rsp), %xmm3                              #lbm.c:127.41
..LN731:
        vmovups   %xmm3, 144(%rsp)                              #lbm.c:127.41
..LN732:
	.loc    1  574  is_stmt 1
        vmovss    .L_2il0floatpacket.11(%rip), %xmm3            #lbm.c:574.61
..LN733:
	.loc    1  127  is_stmt 1
        movq      304(%rsp), %rax                               #lbm.c:127.41
..LN734:
	.loc    1  574  is_stmt 1
        vsubss    %xmm3, %xmm1, %xmm2                           #lbm.c:574.61
..LN735:
	.loc    1  127  is_stmt 1
        movl      312(%rsp), %edx                               #lbm.c:127.41
..LN736:
        movq      224(%rsp), %rcx                               #lbm.c:127.63
..LN737:
        movl      292(%rsp), %esi                               #lbm.c:127.41
..LN738:
        vmovss    280(%rsp), %xmm4                              #
..LN739:
        movslq    288(%rsp), %rdi                               #lbm.c:127.41
..LN740:
        movq      240(%rsp), %r15                               #lbm.c:127.70
..LN741:
        movq      %rax, 160(%rsp)                               #lbm.c:127.41
..LN742:
        movl      %edx, 168(%rsp)                               #lbm.c:127.41
..LN743:
	.loc    1  336  is_stmt 1
        xorl      %edx, %edx                                    #lbm.c:336.20
..LN744:
	.loc    1  127  is_stmt 1
        movq      %rcx, 272(%rsp)                               #lbm.c:127.63
..LN745:
	.loc    1  574  is_stmt 1
        vmulss    .L_2il0floatpacket.7(%rip), %xmm2, %xmm2      #lbm.c:574.61
..LN746:
	.loc    1  343  is_stmt 1
        testl     %esi, %esi                                    #lbm.c:343.25
..LN747:
        jle       ..B1.71       # Prob 50%                      #lbm.c:343.25
..LN748:
                                # LOE rcx rbx rdi r12 r13 r14 r15 edx ecx esi cl ch xmm2 xmm3 xmm4 ymm4 zmm4
..B1.69:                        # Preds ..B1.68
..L28:          # optimization report
                # %s was not vectorized: inner loop was already vectorized
..LN749:
        xorl      %r11d, %r11d                                  #lbm.c:343.3
..LN750:
	.loc    1  340  is_stmt 1
        vxorps    %xmm0, %xmm0, %xmm0                           #lbm.c:340.3
..LN751:
	.loc    1  336  is_stmt 1
        vpxor     %xmm1, %xmm1, %xmm1                           #lbm.c:336.20
..LN752:
	.loc    1  344  is_stmt 1
        xorl      %r8d, %r8d                                    #lbm.c:344.17
..LN753:
        xorl      %r9d, %r9d                                    #lbm.c:344.17
..LN754:
        testq     %rdi, %rdi                                    #lbm.c:344.27
..LN755:
        jg        ..B1.80       # Prob 50%                      #lbm.c:344.27
..LN756:
                                # LOE rcx rbx rdi r8 r9 r12 r13 r14 r15 edx ecx esi r11d cl ch xmm0 xmm1 xmm2 xmm3 xmm4 ymm4 zmm4
..B1.70:                        # Preds ..B1.69 ..B1.103 ..B1.105
..LN757:
	.loc    1  340  is_stmt 1
        vmovhlps  %xmm0, %xmm0, %xmm7                           #lbm.c:340.3
..LN758:
	.loc    1  336  is_stmt 1
        vpsrldq   $8, %xmm1, %xmm3                              #lbm.c:336.20
..LN759:
	.loc    1  340  is_stmt 1
        vaddps    %xmm7, %xmm0, %xmm0                           #lbm.c:340.3
..LN760:
	.loc    1  336  is_stmt 1
        vpaddd    %xmm3, %xmm1, %xmm1                           #lbm.c:336.20
..LN761:
	.loc    1  340  is_stmt 1
        vshufps   $245, %xmm0, %xmm0, %xmm8                     #lbm.c:340.3
..LN762:
	.loc    1  336  is_stmt 1
        vpsrlq    $32, %xmm1, %xmm5                             #lbm.c:336.20
..LN763:
        vpaddd    %xmm5, %xmm1, %xmm6                           #lbm.c:336.20
..LN764:
	.loc    1  340  is_stmt 1
        vaddss    %xmm8, %xmm0, %xmm9                           #lbm.c:340.3
..LN765:
	.loc    1  336  is_stmt 1
        vmovd     %xmm6, %eax                                   #lbm.c:336.20
..LN766:
	.loc    1  340  is_stmt 1
        vaddss    %xmm4, %xmm9, %xmm4                           #lbm.c:340.3
..LN767:
	.loc    1  336  is_stmt 1
        addl      %eax, %edx                                    #lbm.c:336.20
..LN768:
                                # LOE rbx r12 r13 r14 r15 edx xmm2 xmm4
..B1.71:                        # Preds ..B1.70 ..B1.68
..LN769:
	.loc    1  127  is_stmt 1
        vxorps    %xmm0, %xmm0, %xmm0                           #lbm.c:127.3
..LN770:
        movl      $.L_2__STRING.1, %edi                         #lbm.c:127.3
..LN771:
        vcvtsi2ss 156(%rsp), %xmm0, %xmm0                       #lbm.c:127.3
..LN772:
        vdivss    %xmm2, %xmm0, %xmm1                           #lbm.c:127.3
..LN773:
        vxorps    %xmm2, %xmm2, %xmm2                           #lbm.c:127.3
..LN774:
        movl      $1, %eax                                      #lbm.c:127.3
..LN775:
        vcvtsi2ss %edx, %xmm2, %xmm2                            #lbm.c:127.3
..LN776:
        vdivss    %xmm2, %xmm1, %xmm3                           #lbm.c:127.3
..LN777:
        vmulss    %xmm4, %xmm3, %xmm0                           #lbm.c:127.3
..LN778:
        vcvtss2sd %xmm0, %xmm0, %xmm0                           #lbm.c:127.3
..___tag_value_main.29:
..LN779:
#       printf(const char *__restrict__, ...)
        call      printf                                        #lbm.c:127.3
..___tag_value_main.30:
..LN780:
                                # LOE rbx r12 r13 r14 r15
..B1.72:                        # Preds ..B1.71
..LN781:
	.loc    1  128  is_stmt 1
        vmovsd    264(%rsp), %xmm0                              #lbm.c:128.3
..LN782:
        movl      $.L_2__STRING.2, %edi                         #lbm.c:128.3
..LN783:
        movl      $1, %eax                                      #lbm.c:128.3
..LN784:
        vsubsd    256(%rsp), %xmm0, %xmm0                       #lbm.c:128.3
..___tag_value_main.31:
..LN785:
#       printf(const char *__restrict__, ...)
        call      printf                                        #lbm.c:128.3
..___tag_value_main.32:
..LN786:
                                # LOE rbx r12 r13 r14 r15
..B1.73:                        # Preds ..B1.72
..LN787:
	.loc    1  129  is_stmt 1
        vxorpd    %xmm0, %xmm0, %xmm0                           #lbm.c:129.3
..LN788:
        vxorpd    %xmm1, %xmm1, %xmm1                           #lbm.c:129.3
..LN789:
        vcvtsi2sdq %r12, %xmm0, %xmm0                           #lbm.c:129.3
..LN790:
        vcvtsi2sdq %r13, %xmm1, %xmm1                           #lbm.c:129.3
..LN791:
        vmulsd    .L_2il0floatpacket.4(%rip), %xmm0, %xmm2      #lbm.c:129.3
..LN792:
        movl      $.L_2__STRING.3, %edi                         #lbm.c:129.3
..LN793:
        movl      $1, %eax                                      #lbm.c:129.3
..LN794:
        vaddsd    %xmm2, %xmm1, %xmm0                           #lbm.c:129.3
..___tag_value_main.33:
..LN795:
#       printf(const char *__restrict__, ...)
        call      printf                                        #lbm.c:129.3
..___tag_value_main.34:
..LN796:
                                # LOE rbx r14 r15
..B1.74:                        # Preds ..B1.73
..LN797:
	.loc    1  130  is_stmt 1
        vxorpd    %xmm0, %xmm0, %xmm0                           #lbm.c:130.3
..LN798:
        vxorpd    %xmm1, %xmm1, %xmm1                           #lbm.c:130.3
..LN799:
        vcvtsi2sdq %r14, %xmm0, %xmm0                           #lbm.c:130.3
..LN800:
        vcvtsi2sdq %rbx, %xmm1, %xmm1                           #lbm.c:130.3
..LN801:
        vmulsd    .L_2il0floatpacket.4(%rip), %xmm0, %xmm2      #lbm.c:130.3
..LN802:
        movl      $.L_2__STRING.4, %edi                         #lbm.c:130.3
..LN803:
        movl      $1, %eax                                      #lbm.c:130.3
..LN804:
        vaddsd    %xmm2, %xmm1, %xmm0                           #lbm.c:130.3
..___tag_value_main.35:
..LN805:
#       printf(const char *__restrict__, ...)
        call      printf                                        #lbm.c:130.3
..___tag_value_main.36:
..LN806:
                                # LOE r15
..B1.75:                        # Preds ..B1.74
..LN807:
	.loc    1  131  is_stmt 1
        addq      $-32, %rsp                                    #lbm.c:131.3
..LN808:
        movq      %r15, %rsi                                    #lbm.c:131.3
..LN809:
        movq      %rsp, %rcx                                    #lbm.c:131.3
..LN810:
        vmovups   320(%rsp), %xmm0                              #lbm.c:131.3
..LN811:
        movq      336(%rsp), %rax                               #lbm.c:131.3
..LN812:
        movl      344(%rsp), %edx                               #lbm.c:131.3
..LN813:
        vmovups   %xmm0, (%rcx)                                 #lbm.c:131.3
..LN814:
        movq      %rax, 16(%rcx)                                #lbm.c:131.3
..LN815:
        movl      %edx, 24(%rcx)                                #lbm.c:131.3
..LN816:
        movq      304(%rsp), %rdi                               #lbm.c:131.3
..LN817:
        movq      280(%rsp), %rdx                               #lbm.c:131.3
..___tag_value_main.37:
..LN818:
#       write_values(const t_param, t_soa *, int *, float *)
        call      write_values                                  #lbm.c:131.3
..___tag_value_main.38:
..LN819:
                                # LOE
..B1.119:                       # Preds ..B1.75
..LN820:
        addq      $32, %rsp                                     #lbm.c:131.3
..LN821:
                                # LOE
..B1.76:                        # Preds ..B1.119
..LN822:
	.loc    1  563  is_stmt 1
        movq      240(%rsp), %rdi                               #lbm.c:563.3
..LN823:
#       free(void *)
        call      free                                          #lbm.c:563.3
..LN824:
                                # LOE
..B1.77:                        # Preds ..B1.76
..LN825:
	.loc    1  566  is_stmt 1
        movq      248(%rsp), %rdi                               #lbm.c:566.3
..LN826:
	.loc    1  132  is_stmt 1
        movq      $0, 240(%rsp)                                 #lbm.c:132.42
..LN827:
	.loc    1  566  is_stmt 1
#       free(void *)
        call      free                                          #lbm.c:566.3
..LN828:
                                # LOE
..B1.78:                        # Preds ..B1.77
..LN829:
	.loc    1  134  is_stmt 1
        movl      $.2.25_2_kmpc_loc_struct_pack.94, %edi        #lbm.c:134.10
..LN830:
        xorl      %eax, %eax                                    #lbm.c:134.10
..LN831:
	.loc    1  132  is_stmt 1
        movq      $0, 248(%rsp)                                 #lbm.c:132.54
..___tag_value_main.39:
..LN832:
	.loc    1  134  is_stmt 1
        call      __kmpc_end                                    #lbm.c:134.10
..___tag_value_main.40:
..LN833:
                                # LOE
..B1.79:                        # Preds ..B1.78
..LN834:
        xorl      %eax, %eax                                    #lbm.c:134.10
..LN835:
	.loc    1  134  epilogue_begin  is_stmt 1
        addq      $600, %rsp                                    #lbm.c:134.10
	.cfi_restore 3
..LN836:
        popq      %rbx                                          #lbm.c:134.10
	.cfi_restore 15
..LN837:
        popq      %r15                                          #lbm.c:134.10
	.cfi_restore 14
..LN838:
        popq      %r14                                          #lbm.c:134.10
	.cfi_restore 13
..LN839:
        popq      %r13                                          #lbm.c:134.10
	.cfi_restore 12
..LN840:
        popq      %r12                                          #lbm.c:134.10
..LN841:
        movq      %rbp, %rsp                                    #lbm.c:134.10
..LN842:
        popq      %rbp                                          #lbm.c:134.10
	.cfi_def_cfa 7, 8
	.cfi_restore 6
..LN843:
        ret                                                     #lbm.c:134.10
	.cfi_def_cfa 6, 16
	.cfi_escape 0x10, 0x03, 0x0e, 0x38, 0x1c, 0x0d, 0x80, 0xff, 0xff, 0xff, 0x1a, 0x0d, 0xd8, 0xff, 0xff, 0xff, 0x22
	.cfi_offset 6, -16
	.cfi_escape 0x10, 0x0c, 0x0e, 0x38, 0x1c, 0x0d, 0x80, 0xff, 0xff, 0xff, 0x1a, 0x0d, 0xf8, 0xff, 0xff, 0xff, 0x22
	.cfi_escape 0x10, 0x0d, 0x0e, 0x38, 0x1c, 0x0d, 0x80, 0xff, 0xff, 0xff, 0x1a, 0x0d, 0xf0, 0xff, 0xff, 0xff, 0x22
	.cfi_escape 0x10, 0x0e, 0x0e, 0x38, 0x1c, 0x0d, 0x80, 0xff, 0xff, 0xff, 0x1a, 0x0d, 0xe8, 0xff, 0xff, 0xff, 0x22
	.cfi_escape 0x10, 0x0f, 0x0e, 0x38, 0x1c, 0x0d, 0x80, 0xff, 0xff, 0xff, 0x1a, 0x0d, 0xe0, 0xff, 0xff, 0xff, 0x22
..LN844:
                                # LOE
..B1.80:                        # Preds ..B1.69
..LN845:
	.loc    1  344  is_stmt 1
        movl      %edx, 320(%rsp)                               #lbm.c:344.5
..LN846:
        movl      %edi, %r10d                                   #lbm.c:344.5
..LN847:
        movq      %r14, 192(%rsp)                               #lbm.c:344.5
..LN848:
        xorl      %eax, %eax                                    #lbm.c:344.5
..LN849:
        movq      %rbx, 200(%rsp)                               #lbm.c:344.5
..LN850:
        movq      %r12, 208(%rsp)                               #lbm.c:344.5
..LN851:
        movq      %r13, 216(%rsp)                               #lbm.c:344.5
..LN852:
                                # LOE rax rcx rdi r8 r9 r15 esi r10d r11d xmm0 xmm1 xmm2 xmm3 xmm4
..B1.81:                        # Preds ..B1.102 ..B1.104 ..B1.80
..LN853:
        cmpq      $4, %rdi                                      #lbm.c:344.5
..LN854:
        jl        ..B1.106      # Prob 10%                      #lbm.c:344.5
..LN855:
                                # LOE rax rcx rdi r8 r9 r15 esi r10d r11d xmm0 xmm1 xmm2 xmm3 xmm4
..B1.82:                        # Preds ..B1.81
..LN856:
	.loc    1  348  is_stmt 1
        movq      %r9, %r13                                     #lbm.c:348.31
..LN857:
        addq      (%rcx), %r13                                  #lbm.c:348.31
..LN858:
	.loc    1  344  is_stmt 1
        movq      %r13, %rdx                                    #lbm.c:344.5
..LN859:
        andq      $15, %rdx                                     #lbm.c:344.5
..LN860:
        testl     %edx, %edx                                    #lbm.c:344.5
..LN861:
        je        ..B1.85       # Prob 50%                      #lbm.c:344.5
..LN862:
                                # LOE rax rcx rdi r8 r9 r13 r15 edx esi r10d r11d xmm0 xmm1 xmm2 xmm3 xmm4
..B1.83:                        # Preds ..B1.82
..LN863:
        testb     $3, %dl                                       #lbm.c:344.5
..LN864:
        jne       ..B1.106      # Prob 10%                      #lbm.c:344.5
..LN865:
                                # LOE rax rcx rdi r8 r9 r13 r15 edx esi r10d r11d xmm0 xmm1 xmm2 xmm3 xmm4
..B1.84:                        # Preds ..B1.83
..LN866:
        negl      %edx                                          #lbm.c:344.5
..LN867:
        addl      $16, %edx                                     #lbm.c:344.5
..LN868:
        shrl      $2, %edx                                      #lbm.c:344.5
..LN869:
                                # LOE rax rcx rdi r8 r9 r13 r15 edx esi r10d r11d xmm0 xmm1 xmm2 xmm3 xmm4
..B1.85:                        # Preds ..B1.84 ..B1.82
..LN870:
        movl      %edx, %r14d                                   #lbm.c:344.5
..LN871:
        lea       4(%r14), %rbx                                 #lbm.c:344.5
..LN872:
        cmpq      %rbx, %rdi                                    #lbm.c:344.5
..LN873:
        jl        ..B1.106      # Prob 10%                      #lbm.c:344.5
..LN874:
                                # LOE rax rcx rdi r8 r9 r13 r14 r15 edx esi r10d r11d xmm0 xmm1 xmm2 xmm3 xmm4
..B1.86:                        # Preds ..B1.85
..LN875:
        negl      %edx                                          #lbm.c:344.5
..LN876:
        movq      %rax, %rbx                                    #lbm.c:344.5
..LN877:
        addl      %r10d, %edx                                   #lbm.c:344.5
..LN878:
	.loc    1  346  is_stmt 1
        lea       (%r15,%r9), %r12                              #lbm.c:346.12
..LN879:
	.loc    1  344  is_stmt 1
        andl      $3, %edx                                      #lbm.c:344.5
..LN880:
        negl      %edx                                          #lbm.c:344.5
..LN881:
        addl      %r10d, %edx                                   #lbm.c:344.5
..LN882:
        movslq    %edx, %rdx                                    #lbm.c:344.5
..LN883:
        testq     %r14, %r14                                    #lbm.c:344.5
..LN884:
        jbe       ..B1.92       # Prob 10%                      #lbm.c:344.5
..LN885:
                                # LOE rax rdx rcx rbx rdi r8 r9 r12 r13 r14 r15 esi r10d r11d xmm0 xmm1 xmm2 xmm3 xmm4
..B1.87:                        # Preds ..B1.86
..LN886:
        movq      %rdi, 280(%rsp)                               #
..LN887:
        movl      320(%rsp), %eax                               #
..LN888:
                                # LOE rdx rcx rbx r8 r9 r12 r13 r14 r15 eax esi r10d r11d xmm0 xmm1 xmm2 xmm3 xmm4
..B1.88:                        # Preds ..B1.87 ..B1.90
..L56:          # optimization report
                # LOOP WAS UNROLLED BY 1
                # PEELED LOOP FOR VECTORIZATION
                # VECTORIZATION SPEEDUP COEFFECIENT 2.357422
                # VECTOR TRIP COUNT IS ESTIMATED CONSTANT
                # VECTOR LENGTH 4
                # NORMALIZED VECTORIZATION OVERHEAD 0.375000
..LN889:
	.loc    1  346  is_stmt 1
        cmpl      $0, (%r12,%rbx,4)                             #lbm.c:346.12
..LN890:
        jne       ..B1.90       # Prob 50%                      #lbm.c:346.12
..LN891:
                                # LOE rdx rcx rbx r8 r9 r12 r13 r14 r15 eax esi r10d r11d xmm0 xmm1 xmm2 xmm3 xmm4
..B1.89:                        # Preds ..B1.88
..LN892:
	.loc    1  349  is_stmt 1
        movq      8(%rcx), %rdi                                 #lbm.c:349.31
..LN893:
	.loc    1  377  is_stmt 1
        incl      %eax                                          #lbm.c:377.9
..LN894:
	.loc    1  349  is_stmt 1
        addq      %r9, %rdi                                     #lbm.c:349.31
..LN895:
        vmovss    (%rdi,%rbx,4), %xmm7                          #lbm.c:349.31
..LN896:
	.loc    1  350  is_stmt 1
        movq      16(%rcx), %rdi                                #lbm.c:350.31
..LN897:
        addq      %r9, %rdi                                     #lbm.c:350.31
..LN898:
	.loc    1  349  is_stmt 1
        vaddss    (%r13,%rbx,4), %xmm7, %xmm5                   #lbm.c:349.31
..LN899:
	.loc    1  350  is_stmt 1
        vmovss    (%rdi,%rbx,4), %xmm9                          #lbm.c:350.31
..LN900:
	.loc    1  351  is_stmt 1
        movq      24(%rcx), %rdi                                #lbm.c:351.31
..LN901:
	.loc    1  350  is_stmt 1
        vaddss    %xmm9, %xmm5, %xmm6                           #lbm.c:350.31
..LN902:
	.loc    1  351  is_stmt 1
        addq      %r9, %rdi                                     #lbm.c:351.31
..LN903:
        vaddss    (%rdi,%rbx,4), %xmm6, %xmm8                   #lbm.c:351.31
..LN904:
	.loc    1  364  is_stmt 1
        vsubss    (%rdi,%rbx,4), %xmm7, %xmm11                  #lbm.c:364.22
..LN905:
	.loc    1  352  is_stmt 1
        movq      32(%rcx), %rdi                                #lbm.c:352.31
..LN906:
        addq      %r9, %rdi                                     #lbm.c:352.31
..LN907:
        vaddss    (%rdi,%rbx,4), %xmm8, %xmm10                  #lbm.c:352.31
..LN908:
	.loc    1  372  is_stmt 1
        vsubss    (%rdi,%rbx,4), %xmm9, %xmm12                  #lbm.c:372.22
..LN909:
	.loc    1  353  is_stmt 1
        movq      40(%rcx), %rdi                                #lbm.c:353.31
..LN910:
        addq      %r9, %rdi                                     #lbm.c:353.31
..LN911:
        vaddss    (%rdi,%rbx,4), %xmm10, %xmm13                 #lbm.c:353.31
..LN912:
	.loc    1  360  is_stmt 1
        vaddss    (%rdi,%rbx,4), %xmm11, %xmm14                 #lbm.c:360.22
..LN913:
	.loc    1  368  is_stmt 1
        vaddss    (%rdi,%rbx,4), %xmm12, %xmm15                 #lbm.c:368.22
..LN914:
	.loc    1  354  is_stmt 1
        movq      48(%rcx), %rdi                                #lbm.c:354.31
..LN915:
        addq      %r9, %rdi                                     #lbm.c:354.31
..LN916:
        vaddss    (%rdi,%rbx,4), %xmm13, %xmm5                  #lbm.c:354.31
..LN917:
	.loc    1  364  is_stmt 1
        vsubss    (%rdi,%rbx,4), %xmm14, %xmm6                  #lbm.c:364.22
..LN918:
	.loc    1  369  is_stmt 1
        vaddss    (%rdi,%rbx,4), %xmm15, %xmm7                  #lbm.c:369.22
..LN919:
	.loc    1  355  is_stmt 1
        movq      56(%rcx), %rdi                                #lbm.c:355.31
..LN920:
        addq      %r9, %rdi                                     #lbm.c:355.31
..LN921:
        vaddss    (%rdi,%rbx,4), %xmm5, %xmm8                   #lbm.c:355.31
..LN922:
	.loc    1  364  is_stmt 1
        vsubss    (%rdi,%rbx,4), %xmm6, %xmm10                  #lbm.c:364.22
..LN923:
	.loc    1  372  is_stmt 1
        vsubss    (%rdi,%rbx,4), %xmm7, %xmm11                  #lbm.c:372.22
..LN924:
	.loc    1  356  is_stmt 1
        movq      64(%rcx), %rdi                                #lbm.c:356.31
..LN925:
        addq      %r9, %rdi                                     #lbm.c:356.31
..LN926:
        vaddss    (%rdi,%rbx,4), %xmm8, %xmm9                   #lbm.c:356.31
..LN927:
	.loc    1  361  is_stmt 1
        vaddss    (%rdi,%rbx,4), %xmm10, %xmm12                 #lbm.c:361.22
..LN928:
	.loc    1  372  is_stmt 1
        vsubss    (%rdi,%rbx,4), %xmm11, %xmm14                 #lbm.c:372.22
..LN929:
	.loc    1  365  is_stmt 1
        vdivss    %xmm9, %xmm3, %xmm13                          #lbm.c:365.21
..LN930:
        vmulss    %xmm12, %xmm13, %xmm15                        #lbm.c:365.21
..LN931:
	.loc    1  373  is_stmt 1
        vmulss    %xmm14, %xmm13, %xmm5                         #lbm.c:373.21
..LN932:
	.loc    1  375  is_stmt 1
        vmulss    %xmm15, %xmm15, %xmm6                         #lbm.c:375.31
..LN933:
        vmulss    %xmm5, %xmm5, %xmm7                           #lbm.c:375.45
..LN934:
        vaddss    %xmm7, %xmm6, %xmm8                           #lbm.c:375.45
..LN935:
        vsqrtss   %xmm8, %xmm8, %xmm8                           #lbm.c:375.18
..LN936:
        vaddss    %xmm8, %xmm4, %xmm4                           #lbm.c:375.9
..LN937:
                                # LOE rdx rcx rbx r8 r9 r12 r13 r14 r15 eax esi r10d r11d xmm0 xmm1 xmm2 xmm3 xmm4
..B1.90:                        # Preds ..B1.89 ..B1.88
..LN938:
	.loc    1  344  is_stmt 1
        incq      %rbx                                          #lbm.c:344.5
..LN939:
        cmpq      %r14, %rbx                                    #lbm.c:344.5
..LN940:
        jb        ..B1.88       # Prob 82%                      #lbm.c:344.5
..LN941:
                                # LOE rdx rcx rbx r8 r9 r12 r13 r14 r15 eax esi r10d r11d xmm0 xmm1 xmm2 xmm3 xmm4
..B1.91:                        # Preds ..B1.90
..LN942:
        movl      %eax, 320(%rsp)                               #
..LN943:
        xorl      %eax, %eax                                    #
..LN944:
        movq      280(%rsp), %rdi                               #
..LN945:
                                # LOE rax rdx rcx rdi r8 r9 r12 r13 r14 r15 esi r10d r11d xmm0 xmm1 xmm2 xmm3 xmm4
..B1.92:                        # Preds ..B1.86 ..B1.91
..LN946:
        lea       (,%r14,4), %rbx                               #lbm.c:344.5
..LN947:
	.loc    1  346  is_stmt 1
        vpcmpeqd  %xmm15, %xmm15, %xmm15                        #lbm.c:346.12
..LN948:
                                # LOE rdx rcx rbx rdi r8 r9 r12 r13 r14 r15 esi r10d r11d xmm0 xmm1 xmm2 xmm3 xmm4 xmm15
..B1.93:                        # Preds ..B1.95 ..B1.92
..L57:          # optimization report
                # LOOP WAS UNROLLED BY 1
                # LOOP WAS VECTORIZED
                # VECTORIZATION HAS UNALIGNED MEMORY REFERENCES
                # VECTORIZATION SPEEDUP COEFFECIENT 2.357422
                # VECTOR TRIP COUNT IS ESTIMATED CONSTANT
                # VECTOR LENGTH 4
                # NORMALIZED VECTORIZATION OVERHEAD 0.375000
                # MAIN VECTOR TYPE: 32-bits floating point
..LN949:
        vpxor     %xmm5, %xmm5, %xmm5                           #lbm.c:346.12
..LN950:
        vpcmpeqd  (%rbx,%r12), %xmm5, %xmm14                    #lbm.c:346.12
..LN951:
        vptest    %xmm15, %xmm14                                #lbm.c:346.12
..LN952:
        je        ..B1.95       # Prob 20%                      #lbm.c:346.12
..LN953:
                                # LOE rdx rcx rbx rdi r8 r9 r12 r13 r14 r15 esi r10d r11d xmm0 xmm1 xmm2 xmm3 xmm4 xmm14 xmm15
..B1.94:                        # Preds ..B1.93
..LN954:
	.loc    1  349  is_stmt 1
        movq      8(%rcx), %rax                                 #lbm.c:349.31
..LN955:
	.loc    1  377  is_stmt 1
        vpsubd    %xmm14, %xmm1, %xmm1                          #lbm.c:377.9
..LN956:
	.loc    1  349  is_stmt 1
        addq      %r9, %rax                                     #lbm.c:349.31
..LN957:
	.loc    1  348  is_stmt 1
        vmaskmovps (%rbx,%r13), %xmm14, %xmm5                   #lbm.c:348.31
..LN958:
	.loc    1  349  is_stmt 1
        vmaskmovps (%rax,%rbx), %xmm14, %xmm11                  #lbm.c:349.31
..LN959:
        vaddps    %xmm11, %xmm5, %xmm6                          #lbm.c:349.31
..LN960:
	.loc    1  350  is_stmt 1
        movq      16(%rcx), %rax                                #lbm.c:350.31
..LN961:
        addq      %r9, %rax                                     #lbm.c:350.31
..LN962:
        vmaskmovps (%rax,%rbx), %xmm14, %xmm12                  #lbm.c:350.31
..LN963:
        vaddps    %xmm12, %xmm6, %xmm8                          #lbm.c:350.31
..LN964:
	.loc    1  351  is_stmt 1
        movq      24(%rcx), %rax                                #lbm.c:351.31
..LN965:
        addq      %r9, %rax                                     #lbm.c:351.31
..LN966:
        vmaskmovps (%rax,%rbx), %xmm14, %xmm10                  #lbm.c:351.31
..LN967:
        vaddps    %xmm10, %xmm8, %xmm7                          #lbm.c:351.31
..LN968:
	.loc    1  352  is_stmt 1
        movq      32(%rcx), %rax                                #lbm.c:352.31
..LN969:
        addq      %r9, %rax                                     #lbm.c:352.31
..LN970:
        vmaskmovps (%rax,%rbx), %xmm14, %xmm13                  #lbm.c:352.31
..LN971:
        vaddps    %xmm13, %xmm7, %xmm9                          #lbm.c:352.31
..LN972:
	.loc    1  353  is_stmt 1
        movq      40(%rcx), %rax                                #lbm.c:353.31
..LN973:
        addq      %r9, %rax                                     #lbm.c:353.31
..LN974:
        vmaskmovps (%rax,%rbx), %xmm14, %xmm5                   #lbm.c:353.31
..LN975:
        vaddps    %xmm5, %xmm9, %xmm6                           #lbm.c:353.31
..LN976:
	.loc    1  360  is_stmt 1
        vaddps    %xmm5, %xmm11, %xmm9                          #lbm.c:360.22
..LN977:
	.loc    1  368  is_stmt 1
        vaddps    %xmm5, %xmm12, %xmm11                         #lbm.c:368.22
..LN978:
	.loc    1  354  is_stmt 1
        movq      48(%rcx), %rax                                #lbm.c:354.31
..LN979:
        addq      %r9, %rax                                     #lbm.c:354.31
..LN980:
        vmaskmovps (%rax,%rbx), %xmm14, %xmm12                  #lbm.c:354.31
..LN981:
        vaddps    %xmm12, %xmm6, %xmm5                          #lbm.c:354.31
..LN982:
	.loc    1  363  is_stmt 1
        vaddps    %xmm12, %xmm10, %xmm10                        #lbm.c:363.22
..LN983:
	.loc    1  369  is_stmt 1
        vaddps    %xmm12, %xmm11, %xmm8                         #lbm.c:369.22
..LN984:
	.loc    1  355  is_stmt 1
        movq      56(%rcx), %rax                                #lbm.c:355.31
..LN985:
        addq      %r9, %rax                                     #lbm.c:355.31
..LN986:
        vmaskmovps (%rax,%rbx), %xmm14, %xmm6                   #lbm.c:355.31
..LN987:
        vaddps    %xmm6, %xmm5, %xmm5                           #lbm.c:355.31
..LN988:
	.loc    1  364  is_stmt 1
        vaddps    %xmm6, %xmm10, %xmm7                          #lbm.c:364.22
..LN989:
	.loc    1  371  is_stmt 1
        vaddps    %xmm6, %xmm13, %xmm10                         #lbm.c:371.22
..LN990:
	.loc    1  356  is_stmt 1
        movq      64(%rcx), %rax                                #lbm.c:356.31
..LN991:
        addq      %r9, %rax                                     #lbm.c:356.31
..LN992:
        vmaskmovps (%rbx,%rax), %xmm14, %xmm11                  #lbm.c:356.31
..LN993:
        vaddps    %xmm11, %xmm5, %xmm6                          #lbm.c:356.31
..LN994:
	.loc    1  361  is_stmt 1
        vaddps    %xmm11, %xmm9, %xmm13                         #lbm.c:361.22
..LN995:
	.loc    1  365  is_stmt 1
        vrcpps    %xmm6, %xmm9                                  #lbm.c:365.21
..LN996:
	.loc    1  364  is_stmt 1
        vsubps    %xmm7, %xmm13, %xmm5                          #lbm.c:364.22
..LN997:
	.loc    1  365  is_stmt 1
        vmulps    %xmm6, %xmm9, %xmm6                           #lbm.c:365.21
..LN998:
	.loc    1  372  is_stmt 1
        vaddps    %xmm11, %xmm10, %xmm7                         #lbm.c:372.22
..LN999:
	.loc    1  365  is_stmt 1
        vmulps    %xmm9, %xmm6, %xmm12                          #lbm.c:365.21
..LN1000:
	.loc    1  372  is_stmt 1
        vsubps    %xmm7, %xmm8, %xmm7                           #lbm.c:372.22
..LN1001:
	.loc    1  365  is_stmt 1
        vaddps    %xmm9, %xmm9, %xmm8                           #lbm.c:365.21
..LN1002:
        vsubps    %xmm12, %xmm8, %xmm13                         #lbm.c:365.21
..LN1003:
        vmulps    %xmm5, %xmm13, %xmm5                          #lbm.c:365.21
..LN1004:
	.loc    1  373  is_stmt 1
        vmulps    %xmm7, %xmm13, %xmm6                          #lbm.c:373.21
..LN1005:
	.loc    1  375  is_stmt 1
        vmulps    %xmm5, %xmm5, %xmm5                           #lbm.c:375.31
..LN1006:
        vmulps    %xmm6, %xmm6, %xmm7                           #lbm.c:375.45
..LN1007:
        vaddps    %xmm7, %xmm5, %xmm11                          #lbm.c:375.45
..LN1008:
        vrsqrtps  %xmm11, %xmm10                                #lbm.c:375.18
..LN1009:
        vandps    .L_2il0floatpacket.15(%rip), %xmm11, %xmm8    #lbm.c:375.18
..LN1010:
        vcmpgeps  .L_2il0floatpacket.14(%rip), %xmm8, %xmm9     #lbm.c:375.18
..LN1011:
        vandps    %xmm10, %xmm9, %xmm12                         #lbm.c:375.18
..LN1012:
        vmulps    %xmm12, %xmm11, %xmm5                         #lbm.c:375.18
..LN1013:
        vmulps    %xmm12, %xmm5, %xmm13                         #lbm.c:375.18
..LN1014:
        vsubps    .L_2il0floatpacket.12(%rip), %xmm13, %xmm6    #lbm.c:375.18
..LN1015:
        vmulps    %xmm6, %xmm5, %xmm7                           #lbm.c:375.18
..LN1016:
        vmulps    .L_2il0floatpacket.13(%rip), %xmm7, %xmm8     #lbm.c:375.18
..LN1017:
        vandps    %xmm14, %xmm8, %xmm14                         #lbm.c:375.18
..LN1018:
        vaddps    %xmm14, %xmm0, %xmm0                          #lbm.c:375.9
..LN1019:
                                # LOE rdx rcx rbx rdi r8 r9 r12 r13 r14 r15 esi r10d r11d xmm0 xmm1 xmm2 xmm3 xmm4 xmm15
..B1.95:                        # Preds ..B1.94 ..B1.93
..LN1020:
	.loc    1  344  is_stmt 1
        addq      $4, %r14                                      #lbm.c:344.5
..LN1021:
        addq      $16, %rbx                                     #lbm.c:344.5
..LN1022:
        cmpq      %rdx, %r14                                    #lbm.c:344.5
..LN1023:
        jb        ..B1.93       # Prob 82%                      #lbm.c:344.5
..LN1024:
                                # LOE rdx rcx rbx rdi r8 r9 r12 r13 r14 r15 esi r10d r11d xmm0 xmm1 xmm2 xmm3 xmm4 xmm15
..B1.96:                        # Preds ..B1.95
..LN1025:
        xorl      %eax, %eax                                    #
..LN1026:
                                # LOE rax rdx rcx rdi r8 r9 r15 esi r10d r11d xmm0 xmm1 xmm2 xmm3 xmm4
..B1.97:                        # Preds ..B1.96 ..B1.106
..LN1027:
        cmpq      %rdi, %rdx                                    #lbm.c:344.5
..LN1028:
        jae       ..B1.104      # Prob 10%                      #lbm.c:344.5
..LN1029:
                                # LOE rax rdx rcx rdi r8 r9 r15 esi r10d r11d xmm0 xmm1 xmm2 xmm3 xmm4
..B1.98:                        # Preds ..B1.97
..LN1030:
	.loc    1  346  is_stmt 1
        movq      %r9, 352(%rsp)                                #lbm.c:346.12
..LN1031:
        lea       (%r15,%r8,4), %rbx                            #lbm.c:346.12
..LN1032:
        movl      %r11d, 344(%rsp)                              #lbm.c:346.12
..LN1033:
        movq      %r15, 336(%rsp)                               #lbm.c:346.12
..LN1034:
        movl      %esi, 328(%rsp)                               #lbm.c:346.12
..LN1035:
        movl      320(%rsp), %r14d                              #lbm.c:346.12
..LN1036:
                                # LOE rdx rcx rbx rdi r8 r10d r14d xmm0 xmm1 xmm2 xmm3 xmm4
..B1.99:                        # Preds ..B1.101 ..B1.98
..L58:          # optimization report
                # LOOP WAS UNROLLED BY 1
                # REMAINDER LOOP FOR VECTORIZATION
                # VECTORIZATION SPEEDUP COEFFECIENT 2.357422
                # VECTOR TRIP COUNT IS ESTIMATED CONSTANT
                # VECTOR LENGTH 4
                # NORMALIZED VECTORIZATION OVERHEAD 0.375000
..LN1037:
        cmpl      $0, (%rbx,%rdx,4)                             #lbm.c:346.12
..LN1038:
        jne       ..B1.101      # Prob 50%                      #lbm.c:346.12
..LN1039:
                                # LOE rdx rcx rbx rdi r8 r10d r14d xmm0 xmm1 xmm2 xmm3 xmm4
..B1.100:                       # Preds ..B1.99
..LN1040:
	.loc    1  349  is_stmt 1
        movq      8(%rcx), %r15                                 #lbm.c:349.31
..LN1041:
	.loc    1  377  is_stmt 1
        incl      %r14d                                         #lbm.c:377.9
..LN1042:
	.loc    1  351  is_stmt 1
        movq      24(%rcx), %r9                                 #lbm.c:351.31
..LN1043:
	.loc    1  350  is_stmt 1
        movq      16(%rcx), %r12                                #lbm.c:350.31
..LN1044:
	.loc    1  352  is_stmt 1
        movq      32(%rcx), %rsi                                #lbm.c:352.31
..LN1045:
	.loc    1  349  is_stmt 1
        lea       (%r15,%r8,4), %r13                            #lbm.c:349.31
..LN1046:
	.loc    1  354  is_stmt 1
        movq      48(%rcx), %r15                                #lbm.c:354.31
..LN1047:
	.loc    1  349  is_stmt 1
        vmovss    (%r13,%rdx,4), %xmm8                          #lbm.c:349.31
..LN1048:
	.loc    1  351  is_stmt 1
        lea       (%r9,%r8,4), %r13                             #lbm.c:351.31
..LN1049:
	.loc    1  353  is_stmt 1
        movq      40(%rcx), %rax                                #lbm.c:353.31
..LN1050:
	.loc    1  350  is_stmt 1
        lea       (%r12,%r8,4), %r11                            #lbm.c:350.31
..LN1051:
        vmovss    (%r11,%rdx,4), %xmm7                          #lbm.c:350.31
..LN1052:
	.loc    1  354  is_stmt 1
        lea       (%r15,%r8,4), %r9                             #lbm.c:354.31
..LN1053:
	.loc    1  348  is_stmt 1
        movq      (%rcx), %r15                                  #lbm.c:348.31
..LN1054:
	.loc    1  352  is_stmt 1
        lea       (%rsi,%r8,4), %r12                            #lbm.c:352.31
..LN1055:
	.loc    1  355  is_stmt 1
        movq      56(%rcx), %rsi                                #lbm.c:355.31
..LN1056:
	.loc    1  353  is_stmt 1
        lea       (%rax,%r8,4), %r11                            #lbm.c:353.31
..LN1057:
	.loc    1  356  is_stmt 1
        movq      64(%rcx), %rax                                #lbm.c:356.31
..LN1058:
	.loc    1  348  is_stmt 1
        lea       (%r15,%r8,4), %r15                            #lbm.c:348.31
..LN1059:
	.loc    1  364  is_stmt 1
        vsubss    (%r13,%rdx,4), %xmm8, %xmm9                   #lbm.c:364.22
..LN1060:
	.loc    1  349  is_stmt 1
        vaddss    (%r15,%rdx,4), %xmm8, %xmm8                   #lbm.c:349.31
..LN1061:
	.loc    1  372  is_stmt 1
        vsubss    (%r12,%rdx,4), %xmm7, %xmm10                  #lbm.c:372.22
..LN1062:
	.loc    1  360  is_stmt 1
        vaddss    (%r11,%rdx,4), %xmm9, %xmm11                  #lbm.c:360.22
..LN1063:
	.loc    1  350  is_stmt 1
        vaddss    %xmm7, %xmm8, %xmm7                           #lbm.c:350.31
..LN1064:
	.loc    1  368  is_stmt 1
        vaddss    (%r11,%rdx,4), %xmm10, %xmm12                 #lbm.c:368.22
..LN1065:
	.loc    1  364  is_stmt 1
        vsubss    (%r9,%rdx,4), %xmm11, %xmm13                  #lbm.c:364.22
..LN1066:
	.loc    1  351  is_stmt 1
        vaddss    (%r13,%rdx,4), %xmm7, %xmm9                   #lbm.c:351.31
..LN1067:
	.loc    1  369  is_stmt 1
        vaddss    (%r9,%rdx,4), %xmm12, %xmm14                  #lbm.c:369.22
..LN1068:
	.loc    1  352  is_stmt 1
        vaddss    (%r12,%rdx,4), %xmm9, %xmm10                  #lbm.c:352.31
..LN1069:
	.loc    1  353  is_stmt 1
        vaddss    (%r11,%rdx,4), %xmm10, %xmm11                 #lbm.c:353.31
..LN1070:
	.loc    1  354  is_stmt 1
        vaddss    (%r9,%rdx,4), %xmm11, %xmm12                  #lbm.c:354.31
..LN1071:
	.loc    1  355  is_stmt 1
        lea       (%rsi,%r8,4), %rsi                            #lbm.c:355.31
..LN1072:
	.loc    1  364  is_stmt 1
        vsubss    (%rsi,%rdx,4), %xmm13, %xmm15                 #lbm.c:364.22
..LN1073:
	.loc    1  355  is_stmt 1
        vaddss    (%rsi,%rdx,4), %xmm12, %xmm13                 #lbm.c:355.31
..LN1074:
	.loc    1  372  is_stmt 1
        vsubss    (%rsi,%rdx,4), %xmm14, %xmm5                  #lbm.c:372.22
..LN1075:
	.loc    1  356  is_stmt 1
        lea       (%rax,%r8,4), %rax                            #lbm.c:356.31
..LN1076:
        vaddss    (%rax,%rdx,4), %xmm13, %xmm14                 #lbm.c:356.31
..LN1077:
	.loc    1  361  is_stmt 1
        vaddss    (%rax,%rdx,4), %xmm15, %xmm6                  #lbm.c:361.22
..LN1078:
	.loc    1  372  is_stmt 1
        vsubss    (%rax,%rdx,4), %xmm5, %xmm5                   #lbm.c:372.22
..LN1079:
	.loc    1  365  is_stmt 1
        vdivss    %xmm14, %xmm3, %xmm15                         #lbm.c:365.21
..LN1080:
        vmulss    %xmm6, %xmm15, %xmm6                          #lbm.c:365.21
..LN1081:
	.loc    1  373  is_stmt 1
        vmulss    %xmm5, %xmm15, %xmm5                          #lbm.c:373.21
..LN1082:
	.loc    1  375  is_stmt 1
        vmulss    %xmm6, %xmm6, %xmm6                           #lbm.c:375.31
..LN1083:
        vmulss    %xmm5, %xmm5, %xmm7                           #lbm.c:375.45
..LN1084:
        vaddss    %xmm7, %xmm6, %xmm8                           #lbm.c:375.45
..LN1085:
        vsqrtss   %xmm8, %xmm8, %xmm8                           #lbm.c:375.18
..LN1086:
        vaddss    %xmm8, %xmm4, %xmm4                           #lbm.c:375.9
..LN1087:
                                # LOE rdx rcx rbx rdi r8 r10d r14d xmm0 xmm1 xmm2 xmm3 xmm4
..B1.101:                       # Preds ..B1.100 ..B1.99
..LN1088:
	.loc    1  344  is_stmt 1
        incq      %rdx                                          #lbm.c:344.5
..LN1089:
        cmpq      %rdi, %rdx                                    #lbm.c:344.5
..LN1090:
        jb        ..B1.99       # Prob 82%                      #lbm.c:344.5
..LN1091:
                                # LOE rdx rcx rbx rdi r8 r10d r14d xmm0 xmm1 xmm2 xmm3 xmm4
..B1.102:                       # Preds ..B1.101
..LN1092:
        movl      344(%rsp), %r11d                              #
..LN1093:
	.loc    1  343  is_stmt 1
        addq      %rdi, %r8                                     #lbm.c:343.3
..LN1094:
        incl      %r11d                                         #lbm.c:343.3
..LN1095:
        xorl      %eax, %eax                                    #
..LN1096:
        movl      328(%rsp), %esi                               #
..LN1097:
        movq      352(%rsp), %r9                                #
..LN1098:
        movq      336(%rsp), %r15                               #
..LN1099:
        lea       (%r9,%rdi,4), %r9                             #lbm.c:343.3
..LN1100:
        movl      %r14d, 320(%rsp)                              #
..LN1101:
        cmpl      %esi, %r11d                                   #lbm.c:343.3
..LN1102:
        jb        ..B1.81       # Prob 82%                      #lbm.c:343.3
..LN1103:
                                # LOE rax rcx rdi r8 r9 r14 r15 esi r10d r11d r14d r15d r14b r15b xmm0 xmm1 xmm2 xmm3 xmm4
..B1.103:                       # Preds ..B1.102                # Infreq
..LN1104:
        movl      %r14d, %edx                                   #
..LN1105:
        movq      192(%rsp), %r14                               #
..LN1106:
        movq      200(%rsp), %rbx                               #
..LN1107:
        movq      208(%rsp), %r12                               #
..LN1108:
        movq      216(%rsp), %r13                               #
..LN1109:
        jmp       ..B1.70       # Prob 100%                     #
..LN1110:
                                # LOE rbx r12 r13 r14 r15 edx xmm0 xmm1 xmm2 xmm4
..B1.104:                       # Preds ..B1.97                 # Infreq
..LN1111:
        incl      %r11d                                         #lbm.c:343.3
..LN1112:
        addq      %rdi, %r8                                     #lbm.c:343.3
..LN1113:
        lea       (%r9,%rdi,4), %r9                             #lbm.c:343.3
..LN1114:
        cmpl      %esi, %r11d                                   #lbm.c:343.3
..LN1115:
        jb        ..B1.81       # Prob 82%                      #lbm.c:343.3
..LN1116:
                                # LOE rax rcx rdi r8 r9 r15 esi r10d r11d xmm0 xmm1 xmm2 xmm3 xmm4
..B1.105:                       # Preds ..B1.104                # Infreq
..LN1117:
        movl      320(%rsp), %edx                               #
..LN1118:
        movq      192(%rsp), %r14                               #
..LN1119:
        movq      200(%rsp), %rbx                               #
..LN1120:
        movq      208(%rsp), %r12                               #
..LN1121:
        movq      216(%rsp), %r13                               #
..LN1122:
        jmp       ..B1.70       # Prob 100%                     #
..LN1123:
                                # LOE rbx r12 r13 r14 r15 edx xmm0 xmm1 xmm2 xmm4
..B1.106:                       # Preds ..B1.81 ..B1.83 ..B1.85 # Infreq
..LN1124:
	.loc    1  344  is_stmt 1
        movq      %rax, %rdx                                    #lbm.c:344.5
..LN1125:
        jmp       ..B1.97       # Prob 100%                     #lbm.c:344.5
..LN1126:
                                # LOE rax rdx rcx rdi r8 r9 r15 esi r10d r11d xmm0 xmm1 xmm2 xmm3 xmm4
..B1.109:                       # Preds ..B1.38                 # Infreq
..LN1127:
	.loc    1  166  is_stmt 1
        xorl      %eax, %eax                                    #lbm.c:166.3
..LN1128:
	.loc    1  164  is_stmt 1
        jmp       ..B1.53       # Prob 100%                     #lbm.c:164.38
..LN1129:
                                # LOE rdx rcx rbx rsi rdi r9 r12 eax r8d r11d xmm6 xmm7
..B1.110:                       # Preds ..B1.37                 # Infreq
..LN1130:
	.loc    1  166  is_stmt 1
        xorl      %eax, %eax                                    #lbm.c:166.3
..LN1131:
	.loc    1  164  is_stmt 1
        jmp       ..B1.53       # Prob 100%                     #lbm.c:164.38
..LN1132:
                                # LOE rdx rcx rbx rsi rdi r9 r12 eax r8d r11d xmm6 xmm7
..B1.111:                       # Preds ..B1.11                 # Infreq
..LN1133:
	.loc    1  166  is_stmt 1
        xorl      %r8d, %r8d                                    #lbm.c:166.3
..LN1134:
	.loc    1  164  is_stmt 1
        jmp       ..B1.26       # Prob 100%                     #lbm.c:164.38
..LN1135:
                                # LOE rax rdx rbx r9 r10 r11 r12 esi edi r8d xmm6 xmm7
..B1.112:                       # Preds ..B1.10                 # Infreq
..LN1136:
	.loc    1  166  is_stmt 1
        xorl      %r8d, %r8d                                    #lbm.c:166.3
..LN1137:
	.loc    1  164  is_stmt 1
        jmp       ..B1.26       # Prob 100%                     #lbm.c:164.38
        .align    16,0x90
	.cfi_endproc
..LN1138:
                                # LOE rax rdx rbx r9 r10 r11 r12 esi edi r8d xmm6 xmm7
..LN1139:
# mark_end;
	.type	main,@function
	.size	main,.-main
..LNmain.1140:
.LNmain:
	.data
	.align 4
	.align 4
.2.25_2_kmpc_loc_struct_pack.75:
	.long	0
	.long	2
	.long	0
	.long	0
	.quad	.2.25_2__kmpc_loc_pack.74
	.align 4
.2.25_2__kmpc_loc_pack.74:
	.byte	59
	.byte	117
	.byte	110
	.byte	107
	.byte	110
	.byte	111
	.byte	119
	.byte	110
	.byte	59
	.byte	109
	.byte	97
	.byte	105
	.byte	110
	.byte	59
	.byte	56
	.byte	51
	.byte	59
	.byte	56
	.byte	51
	.byte	59
	.byte	59
	.space 3, 0x00 	# pad
	.align 4
.2.25_2_kmpc_loc_struct_pack.94:
	.long	0
	.long	2
	.long	0
	.long	0
	.quad	.2.25_2__kmpc_loc_pack.93
	.align 4
.2.25_2__kmpc_loc_pack.93:
	.byte	59
	.byte	117
	.byte	110
	.byte	107
	.byte	110
	.byte	111
	.byte	119
	.byte	110
	.byte	59
	.byte	109
	.byte	97
	.byte	105
	.byte	110
	.byte	59
	.byte	49
	.byte	51
	.byte	52
	.byte	59
	.byte	49
	.byte	51
	.byte	52
	.byte	59
	.byte	59
	.section .rodata.str1.4, "aMS",@progbits,1
	.align 4
	.align 4
il0_peep_printf_format_0:
	.long	1868840253
	.long	1027433838
	.byte	0
	.data
	.file   2 "/usr/include/bits/time.h"
	.file   3 "/usr/include/bits/types.h"
	.file   4 "/usr/include/bits/resource.h"
# -- End  main
	.text
.L_2__routine_start_prop_rebound_collision_avels_1:
# -- Begin  prop_rebound_collision_avels, L_prop_rebound_collision_avels_196__par_loop0_2.16, L_prop_rebound_collision_avels_196__tree_reduce0_2.17
	.text
# mark_begin;
       .align    16,0x90
	.globl prop_rebound_collision_avels
# --- prop_rebound_collision_avels(const t_param, t_soa *__restrict__, t_soa *__restrict__, int *__restrict__)
prop_rebound_collision_avels:
# parameter 1(params): 16 + %rbp
# parameter 2(cells): %rdi
# parameter 3(tmp_cells): %rsi
# parameter 4(obstacles): %rdx
..B2.1:                         # Preds ..B2.0
	.cfi_startproc
..___tag_value_prop_rebound_collision_avels.63:
..L64:
                                                         #lbm.c:187.133
..LN1141:
	.loc    1  187  is_stmt 1
        pushq     %rbp                                          #lbm.c:187.133
	.cfi_def_cfa_offset 16
..LN1142:
        movq      %rsp, %rbp                                    #lbm.c:187.133
	.cfi_def_cfa 6, 16
	.cfi_offset 6, -16
..LN1143:
        andq      $-32, %rsp                                    #lbm.c:187.133
..LN1144:
        subq      $1920, %rsp                                   #lbm.c:187.133
..LN1145:
	.loc    1  192  prologue_end  is_stmt 1
        xorl      %eax, %eax                                    #lbm.c:192.20
..LN1146:
	.loc    1  187  is_stmt 1
        movq      %rdi, 40(%rsp)                                #lbm.c:187.133
..LN1147:
	.loc    1  196  is_stmt 1
        movl      $.2.26_2_kmpc_loc_struct_pack.12, %edi        #lbm.c:196.3
..LN1148:
	.loc    1  187  is_stmt 1
        movq      %rbx, 32(%rsp)                                #lbm.c:187.133
..LN1149:
        movq      %r15, (%rsp)                                  #lbm.c:187.133
..LN1150:
        movq      %r14, 8(%rsp)                                 #lbm.c:187.133
..LN1151:
        movq      %r13, 16(%rsp)                                #lbm.c:187.133
..LN1152:
        movq      %r12, 24(%rsp)                                #lbm.c:187.133
..LN1153:
        movq      %rsi, 48(%rsp)                                #lbm.c:187.133
..LN1154:
        movq      %rdx, 56(%rsp)                                #lbm.c:187.133
..LN1155:
	.loc    1  188  is_stmt 1
        movl      $1051372203, 64(%rsp)                         #lbm.c:188.20
..LN1156:
	.loc    1  189  is_stmt 1
        movl      $1055100473, 68(%rsp)                         #lbm.c:189.20
..LN1157:
	.loc    1  190  is_stmt 1
        movl      $1038323257, 72(%rsp)                         #lbm.c:190.20
..LN1158:
	.loc    1  191  is_stmt 1
        movl      $1021546041, 76(%rsp)                         #lbm.c:191.20
..LN1159:
	.loc    1  192  is_stmt 1
        movl      %eax, 80(%rsp)                                #lbm.c:192.20
..LN1160:
	.loc    1  193  is_stmt 1
        movl      %eax, 84(%rsp)                                #lbm.c:193.20
..LN1161:
	.loc    1  196  is_stmt 1
        call      __kmpc_global_thread_num                      #lbm.c:196.3
	.cfi_escape 0x10, 0x03, 0x0e, 0x38, 0x1c, 0x0d, 0xe0, 0xff, 0xff, 0xff, 0x1a, 0x0d, 0xa0, 0xf8, 0xff, 0xff, 0x22
	.cfi_escape 0x10, 0x0c, 0x0e, 0x38, 0x1c, 0x0d, 0xe0, 0xff, 0xff, 0xff, 0x1a, 0x0d, 0x98, 0xf8, 0xff, 0xff, 0x22
	.cfi_escape 0x10, 0x0d, 0x0e, 0x38, 0x1c, 0x0d, 0xe0, 0xff, 0xff, 0xff, 0x1a, 0x0d, 0x90, 0xf8, 0xff, 0xff, 0x22
	.cfi_escape 0x10, 0x0e, 0x0e, 0x38, 0x1c, 0x0d, 0xe0, 0xff, 0xff, 0xff, 0x1a, 0x0d, 0x88, 0xf8, 0xff, 0xff, 0x22
	.cfi_escape 0x10, 0x0f, 0x0e, 0x38, 0x1c, 0x0d, 0xe0, 0xff, 0xff, 0xff, 0x1a, 0x0d, 0x80, 0xf8, 0xff, 0xff, 0x22
..LN1162:
                                # LOE eax
..B2.57:                        # Preds ..B2.1
..LN1163:
        movl      %eax, 88(%rsp)                                #lbm.c:196.3
..LN1164:
        movl      $.2.26_2_kmpc_loc_struct_pack.53, %edi        #lbm.c:196.3
..LN1165:
        xorl      %eax, %eax                                    #lbm.c:196.3
..___tag_value_prop_rebound_collision_avels.74:
..LN1166:
        call      __kmpc_ok_to_fork                             #lbm.c:196.3
..___tag_value_prop_rebound_collision_avels.75:
..LN1167:
                                # LOE eax
..B2.2:                         # Preds ..B2.57
..LN1168:
        testl     %eax, %eax                                    #lbm.c:196.3
..LN1169:
        je        ..B2.4        # Prob 50%                      #lbm.c:196.3
..LN1170:
                                # LOE
..B2.3:                         # Preds ..B2.2
..LN1171:
        movl      $L_prop_rebound_collision_avels_196__par_loop0_2.16, %edx #lbm.c:196.3
..LN1172:
        lea       80(%rsp), %rax                                #lbm.c:196.3
..LN1173:
        movl      $.2.26_2_kmpc_loc_struct_pack.53, %edi        #lbm.c:196.3
..LN1174:
        lea       4(%rax), %rbx                                 #lbm.c:196.3
..LN1175:
        lea       -24(%rax), %r12                               #lbm.c:196.3
..LN1176:
        lea       -4(%rax), %r13                                #lbm.c:196.3
..LN1177:
        lea       -8(%rax), %r14                                #lbm.c:196.3
..LN1178:
        lea       -40(%rax), %r8                                #lbm.c:196.3
..LN1179:
        lea       -32(%rax), %r9                                #lbm.c:196.3
..LN1180:
        lea       -12(%rax), %rsi                               #lbm.c:196.3
..LN1181:
        lea       -16(%rax), %r15                               #lbm.c:196.3
..LN1182:
        pushq     %rax                                          #lbm.c:196.3
..LN1183:
        pushq     %rbx                                          #lbm.c:196.3
..LN1184:
        xorl      %eax, %eax                                    #lbm.c:196.3
..LN1185:
        lea       40(%rbp), %r10                                #lbm.c:196.3
..LN1186:
        pushq     %r10                                          #lbm.c:196.3
..LN1187:
        lea       -24(%r10), %rcx                               #lbm.c:196.3
..LN1188:
        pushq     %rcx                                          #lbm.c:196.3
..LN1189:
        lea       4(%rcx), %r11                                 #lbm.c:196.3
..LN1190:
        pushq     %r11                                          #lbm.c:196.3
..LN1191:
        pushq     %r12                                          #lbm.c:196.3
..LN1192:
        pushq     %r13                                          #lbm.c:196.3
..LN1193:
        pushq     %r14                                          #lbm.c:196.3
..LN1194:
        pushq     %r15                                          #lbm.c:196.3
..LN1195:
        pushq     %rsi                                          #lbm.c:196.3
..LN1196:
        movl      $13, %esi                                     #lbm.c:196.3
..___tag_value_prop_rebound_collision_avels.76:
..LN1197:
        call      __kmpc_fork_call                              #lbm.c:196.3
..___tag_value_prop_rebound_collision_avels.77:
..LN1198:
                                # LOE
..B2.58:                        # Preds ..B2.3
..LN1199:
        addq      $80, %rsp                                     #lbm.c:196.3
..LN1200:
        jmp       ..B2.7        # Prob 100%                     #lbm.c:196.3
..LN1201:
                                # LOE
..B2.4:                         # Preds ..B2.2
..LN1202:
        movl      $.2.26_2_kmpc_loc_struct_pack.53, %edi        #lbm.c:196.3
..LN1203:
        xorl      %eax, %eax                                    #lbm.c:196.3
..LN1204:
        movl      88(%rsp), %esi                                #lbm.c:196.3
..___tag_value_prop_rebound_collision_avels.78:
..LN1205:
        call      __kmpc_serialized_parallel                    #lbm.c:196.3
..___tag_value_prop_rebound_collision_avels.79:
..LN1206:
                                # LOE
..B2.5:                         # Preds ..B2.4
..LN1207:
        addq      $-80, %rsp                                    #lbm.c:196.3
..LN1208:
        movl      $___kmpv_zeroprop_rebound_collision_avels_0, %esi #lbm.c:196.3
..LN1209:
        lea       144(%rsp), %rax                               #lbm.c:196.3
..LN1210:
        lea       8(%rax), %rbx                                 #lbm.c:196.3
..LN1211:
        lea       12(%rax), %r10                                #lbm.c:196.3
..LN1212:
        movq      %rax, (%rsp)                                  #lbm.c:196.3
..LN1213:
        lea       -8(%rax), %r11                                #lbm.c:196.3
..LN1214:
        movq      %rbx, 8(%rsp)                                 #lbm.c:196.3
..LN1215:
        lea       24(%rax), %rdi                                #lbm.c:196.3
..LN1216:
        movq      %r10, 16(%rsp)                                #lbm.c:196.3
..LN1217:
        lea       16(%rbp), %rdx                                #lbm.c:196.3
..LN1218:
        movq      %r11, 24(%rsp)                                #lbm.c:196.3
..LN1219:
        lea       -24(%rax), %rcx                               #lbm.c:196.3
..LN1220:
        lea       -16(%rax), %r8                                #lbm.c:196.3
..LN1221:
        lea       4(%rax), %r9                                  #lbm.c:196.3
..LN1222:
        lea       4(%rdx), %r12                                 #lbm.c:196.3
..LN1223:
        movq      %r12, 32(%rsp)                                #lbm.c:196.3
..LN1224:
        movq      %rdx, 40(%rsp)                                #lbm.c:196.3
..LN1225:
        lea       24(%rdx), %r13                                #lbm.c:196.3
..LN1226:
        movq      %r13, 48(%rsp)                                #lbm.c:196.3
..LN1227:
        lea       20(%rax), %r14                                #lbm.c:196.3
..LN1228:
        movq      %r14, 56(%rsp)                                #lbm.c:196.3
..LN1229:
        lea       16(%rax), %r15                                #lbm.c:196.3
..LN1230:
        movq      %r15, 64(%rsp)                                #lbm.c:196.3
..___tag_value_prop_rebound_collision_avels.80:
..LN1231:
        call      L_prop_rebound_collision_avels_196__par_loop0_2.16 #lbm.c:196.3
..___tag_value_prop_rebound_collision_avels.81:
..LN1232:
                                # LOE
..B2.59:                        # Preds ..B2.5
..LN1233:
        addq      $80, %rsp                                     #lbm.c:196.3
..LN1234:
                                # LOE
..B2.6:                         # Preds ..B2.59
..LN1235:
        movl      $.2.26_2_kmpc_loc_struct_pack.53, %edi        #lbm.c:196.3
..LN1236:
        xorl      %eax, %eax                                    #lbm.c:196.3
..LN1237:
        movl      88(%rsp), %esi                                #lbm.c:196.3
..___tag_value_prop_rebound_collision_avels.82:
..LN1238:
        call      __kmpc_end_serialized_parallel                #lbm.c:196.3
..___tag_value_prop_rebound_collision_avels.83:
..LN1239:
                                # LOE
..B2.7:                         # Preds ..B2.58 ..B2.6
..LN1240:
	.loc    1  332  is_stmt 1
        vxorps    %xmm1, %xmm1, %xmm1                           #lbm.c:332.25
..LN1241:
        vcvtsi2ss 80(%rsp), %xmm1, %xmm1                        #lbm.c:332.25
..LN1242:
        vmovss    84(%rsp), %xmm0                               #lbm.c:332.10
..LN1243:
        movq      (%rsp), %r15                                  #lbm.c:332.25
	.cfi_restore 15
..LN1244:
        movq      8(%rsp), %r14                                 #lbm.c:332.25
	.cfi_restore 14
..LN1245:
        movq      16(%rsp), %r13                                #lbm.c:332.25
	.cfi_restore 13
..LN1246:
        movq      24(%rsp), %r12                                #lbm.c:332.25
	.cfi_restore 12
..LN1247:
        movq      32(%rsp), %rbx                                #lbm.c:332.25
	.cfi_restore 3
..LN1248:
        vdivss    %xmm1, %xmm0, %xmm0                           #lbm.c:332.25
..LN1249:
	.loc    1  332  epilogue_begin  is_stmt 1
        movq      %rbp, %rsp                                    #lbm.c:332.25
..LN1250:
        popq      %rbp                                          #lbm.c:332.25
	.cfi_def_cfa 7, 8
	.cfi_restore 6
..LN1251:
        ret                                                     #lbm.c:332.25
	.cfi_def_cfa 6, 16
..LN1252:
                                # LOE
L_prop_rebound_collision_avels_196__tree_reduce0_2.17:
# parameter 1: %rdi
# parameter 2: %rsi
..B2.8:                         # Preds ..B2.0
..LN1253:
	.loc    1  196  is_stmt 1
        pushq     %rbp                                          #lbm.c:196.3
	.cfi_def_cfa 7, 16
..LN1254:
        movq      %rsp, %rbp                                    #lbm.c:196.3
	.cfi_def_cfa 6, 16
	.cfi_offset 6, -16
..LN1255:
        andq      $-32, %rsp                                    #lbm.c:196.3
..LN1256:
        subq      $1920, %rsp                                   #lbm.c:196.3
..LN1257:
        vmovss    (%rdi), %xmm0                                 #lbm.c:196.3
..LN1258:
        movl      4(%rsi), %eax                                 #lbm.c:196.3
..LN1259:
        movq      %r15, (%rsp)                                  #lbm.c:196.3
..LN1260:
        movq      %r14, 8(%rsp)                                 #lbm.c:196.3
..LN1261:
        movq      %r13, 16(%rsp)                                #lbm.c:196.3
..LN1262:
        movq      %r12, 24(%rsp)                                #lbm.c:196.3
..LN1263:
        movq      %rbx, 32(%rsp)                                #lbm.c:196.3
..LN1264:
        addl      %eax, 4(%rdi)                                 #lbm.c:196.3
..LN1265:
        vaddss    (%rsi), %xmm0, %xmm1                          #lbm.c:196.3
..LN1266:
        vmovss    %xmm1, (%rdi)                                 #lbm.c:196.3
..LN1267:
        movq      (%rsp), %r15                                  #lbm.c:196.3
	.cfi_escape 0x10, 0x03, 0x0e, 0x38, 0x1c, 0x0d, 0xe0, 0xff, 0xff, 0xff, 0x1a, 0x0d, 0xa0, 0xf8, 0xff, 0xff, 0x22
	.cfi_escape 0x10, 0x0c, 0x0e, 0x38, 0x1c, 0x0d, 0xe0, 0xff, 0xff, 0xff, 0x1a, 0x0d, 0x98, 0xf8, 0xff, 0xff, 0x22
	.cfi_escape 0x10, 0x0d, 0x0e, 0x38, 0x1c, 0x0d, 0xe0, 0xff, 0xff, 0xff, 0x1a, 0x0d, 0x90, 0xf8, 0xff, 0xff, 0x22
	.cfi_escape 0x10, 0x0e, 0x0e, 0x38, 0x1c, 0x0d, 0xe0, 0xff, 0xff, 0xff, 0x1a, 0x0d, 0x88, 0xf8, 0xff, 0xff, 0x22
..LN1268:
        movq      8(%rsp), %r14                                 #lbm.c:196.3
	.cfi_restore 14
..LN1269:
        movq      16(%rsp), %r13                                #lbm.c:196.3
	.cfi_restore 13
..LN1270:
        movq      24(%rsp), %r12                                #lbm.c:196.3
	.cfi_restore 12
..LN1271:
        movq      32(%rsp), %rbx                                #lbm.c:196.3
	.cfi_restore 3
..LN1272:
	.loc    1  196  epilogue_begin  is_stmt 1
        movq      %rbp, %rsp                                    #lbm.c:196.3
..LN1273:
        popq      %rbp                                          #lbm.c:196.3
	.cfi_def_cfa 7, 8
	.cfi_restore 6
..LN1274:
        ret                                                     #lbm.c:196.3
	.cfi_def_cfa 6, 16
..LN1275:
                                # LOE
L_prop_rebound_collision_avels_196__par_loop0_2.16:
# parameter 1: %rdi
# parameter 2: %rsi
# parameter 3: %rdx
# parameter 4: %rcx
# parameter 5: %r8
# parameter 6: %r9
# parameter 7: 16 + %rbp
# parameter 8: 24 + %rbp
# parameter 9: 32 + %rbp
# parameter 10: 40 + %rbp
# parameter 11: 48 + %rbp
# parameter 12: 56 + %rbp
# parameter 13: 64 + %rbp
# parameter 14: 72 + %rbp
# parameter 15: 80 + %rbp
..B2.9:                         # Preds ..B2.0
..LN1276:
	.loc    1  196  prologue_end  is_stmt 1
        pushq     %rbp                                          #lbm.c:196.3
	.cfi_def_cfa 7, 16
..LN1277:
        movq      %rsp, %rbp                                    #lbm.c:196.3
	.cfi_def_cfa 6, 16
	.cfi_offset 6, -16
..LN1278:
        andq      $-32, %rsp                                    #lbm.c:196.3
..LN1279:
        subq      $1920, %rsp                                   #lbm.c:196.3
..LN1280:
        movq      %rbx, 32(%rsp)                                #lbm.c:196.3
..LN1281:
        vxorps    %xmm4, %xmm4, %xmm4                           #lbm.c:196.3
..LN1282:
        movq      %r13, 16(%rsp)                                #lbm.c:196.3
	.cfi_escape 0x10, 0x03, 0x0e, 0x38, 0x1c, 0x0d, 0xe0, 0xff, 0xff, 0xff, 0x1a, 0x0d, 0xa0, 0xf8, 0xff, 0xff, 0x22
	.cfi_escape 0x10, 0x0d, 0x0e, 0x38, 0x1c, 0x0d, 0xe0, 0xff, 0xff, 0xff, 0x1a, 0x0d, 0x90, 0xf8, 0xff, 0xff, 0x22
..LN1283:
        movq      %rdx, %r13                                    #lbm.c:196.3
..LN1284:
        movq      %r12, 24(%rsp)                                #lbm.c:196.3
	.cfi_escape 0x10, 0x0c, 0x0e, 0x38, 0x1c, 0x0d, 0xe0, 0xff, 0xff, 0xff, 0x1a, 0x0d, 0x98, 0xf8, 0xff, 0xff, 0x22
..LN1285:
        movq      16(%rbp), %r12                                #lbm.c:196.3
..LN1286:
        movq      24(%rbp), %rsi                                #lbm.c:196.3
..LN1287:
        movq      32(%rbp), %rbx                                #lbm.c:196.3
..LN1288:
        movq      40(%rbp), %rdx                                #lbm.c:196.3
..LN1289:
        movq      72(%rbp), %rax                                #lbm.c:196.3
..LN1290:
        movq      %rax, 48(%rsp)                                #lbm.c:196.3
..LN1291:
        movl      (%rdi), %r11d                                 #lbm.c:196.3
..LN1292:
        movq      80(%rbp), %r10                                #lbm.c:196.3
..LN1293:
        movq      (%rdx), %rax                                  #lbm.c:196.3
..LN1294:
        vmovss    (%rbx), %xmm0                                 #lbm.c:196.3
..LN1295:
        vmovss    (%rsi), %xmm1                                 #lbm.c:196.3
..LN1296:
        vmovss    (%r12), %xmm2                                 #lbm.c:196.3
..LN1297:
        vmovss    (%r9), %xmm3                                  #lbm.c:196.3
..LN1298:
        movq      (%r8), %rdi                                   #lbm.c:196.3
..LN1299:
        movq      (%rcx), %rcx                                  #lbm.c:196.3
..LN1300:
	.loc    1  197  prologue_end  is_stmt 1
        movl      4(%r13), %r12d                                #lbm.c:197.15
..LN1301:
	.loc    1  196  is_stmt 1
        movq      %r15, (%rsp)                                  #lbm.c:196.3
..LN1302:
        movq      %r14, 8(%rsp)                                 #lbm.c:196.3
..LN1303:
        movq      %r10, 40(%rsp)                                #lbm.c:196.3
..LN1304:
        movl      %r11d, 184(%rsp)                              #lbm.c:196.3
..LN1305:
        movq      %rax, 200(%rsp)                               #lbm.c:196.3
..LN1306:
        vmovss    %xmm0, 1128(%rsp)                             #lbm.c:196.3
..LN1307:
        vmovss    %xmm1, 1136(%rsp)                             #lbm.c:196.3
..LN1308:
        vmovss    %xmm2, 72(%rsp)                               #lbm.c:196.3
..LN1309:
        vmovss    %xmm3, 1120(%rsp)                             #lbm.c:196.3
..LN1310:
        movq      %rdi, 56(%rsp)                                #lbm.c:196.3
..LN1311:
        movq      %rcx, 64(%rsp)                                #lbm.c:196.3
..LN1312:
        movl      $0, 96(%rsp)                                  #lbm.c:196.3
..LN1313:
        movl      $0, 84(%rsp)                                  #lbm.c:196.3
..LN1314:
        vmovss    %xmm4, 312(%rsp)                              #lbm.c:196.3
..LN1315:
        vmovss    %xmm4, 80(%rsp)                               #lbm.c:196.3
..LN1316:
	.loc    1  197  is_stmt 1
        testl     %r12d, %r12d                                  #lbm.c:197.42
..LN1317:
        jle       ..B2.45       # Prob 10%                      #lbm.c:197.42
	.cfi_escape 0x10, 0x0e, 0x0e, 0x38, 0x1c, 0x0d, 0xe0, 0xff, 0xff, 0xff, 0x1a, 0x0d, 0x88, 0xf8, 0xff, 0xff, 0x22
	.cfi_escape 0x10, 0x0f, 0x0e, 0x38, 0x1c, 0x0d, 0xe0, 0xff, 0xff, 0xff, 0x1a, 0x0d, 0x80, 0xf8, 0xff, 0xff, 0x22
..LN1318:
                                # LOE r13 r12d
..B2.10:                        # Preds ..B2.9
..LN1319:
	.loc    1  196  is_stmt 1
        xorl      %eax, %eax                                    #lbm.c:196.3
..LN1320:
        lea       -1(%r12), %ebx                                #lbm.c:196.3
..LN1321:
        movl      $1, %r11d                                     #lbm.c:196.3
..LN1322:
        movl      $.2.26_2_kmpc_loc_struct_pack.53, %edi        #lbm.c:196.3
..LN1323:
        movl      %eax, 296(%rsp)                               #lbm.c:196.3
..LN1324:
        movl      $34, %edx                                     #lbm.c:196.3
..LN1325:
        movl      %ebx, 300(%rsp)                               #lbm.c:196.3
..LN1326:
        movl      %eax, 304(%rsp)                               #lbm.c:196.3
..LN1327:
        movl      %r11d, 308(%rsp)                              #lbm.c:196.3
..LN1328:
        addq      $-32, %rsp                                    #lbm.c:196.3
..LN1329:
        lea       340(%rsp), %r10                               #lbm.c:196.3
..LN1330:
        lea       336(%rsp), %rcx                               #lbm.c:196.3
..LN1331:
        lea       328(%rsp), %r8                                #lbm.c:196.3
..LN1332:
        movq      %r10, (%rsp)                                  #lbm.c:196.3
..LN1333:
        lea       332(%rsp), %r9                                #lbm.c:196.3
..LN1334:
        movl      %r11d, 8(%rsp)                                #lbm.c:196.3
..LN1335:
        movl      %r11d, 16(%rsp)                               #lbm.c:196.3
..LN1336:
        movl      -120(%rcx), %esi                              #lbm.c:196.3
..LN1337:
        call      __kmpc_for_static_init_4                      #lbm.c:196.3
..LN1338:
                                # LOE r13 ebx r12d
..B2.60:                        # Preds ..B2.10
..LN1339:
        addq      $32, %rsp                                     #lbm.c:196.3
..LN1340:
                                # LOE r13 ebx r12d
..B2.11:                        # Preds ..B2.60
..LN1341:
        movl      296(%rsp), %eax                               #lbm.c:196.3
..LN1342:
        movl      %eax, 192(%rsp)                               #lbm.c:196.3
..LN1343:
        cmpl      %ebx, %eax                                    #lbm.c:196.3
..LN1344:
        movl      300(%rsp), %eax                               #lbm.c:196.3
..LN1345:
        jg        ..B2.44       # Prob 50%                      #lbm.c:196.3
..LN1346:
                                # LOE r13 eax ebx r12d
..B2.12:                        # Preds ..B2.11
..L120:         # optimization report
                # %s was not vectorized: inner loop was already vectorized
..LN1347:
	.loc    1  304  is_stmt 1
        vmovss    24(%r13), %xmm5                               #lbm.c:304.75
..LN1348:
	.loc    1  196  is_stmt 1
        cmpl      %ebx, %eax                                    #lbm.c:196.3
..LN1349:
	.loc    1  217  is_stmt 1
        movl      (%r13), %r15d                                 #lbm.c:217.17
..LN1350:
	.loc    1  207  is_stmt 1
        movq      56(%rsp), %r13                                #lbm.c:207.22
..LN1351:
	.loc    1  196  is_stmt 1
        cmovl     %eax, %ebx                                    #lbm.c:196.3
..LN1352:
	.loc    1  198  is_stmt 1
        movq      64(%rsp), %r8                                 #lbm.c:198.22
..LN1353:
	.loc    1  196  is_stmt 1
        movl      192(%rsp), %r14d                              #lbm.c:196.3
..LN1354:
	.loc    1  212  is_stmt 1
        movq      40(%r13), %r11                                #lbm.c:212.22
..LN1355:
	.loc    1  196  is_stmt 1
        subl      %r14d, %ebx                                   #lbm.c:196.3
..LN1356:
	.loc    1  198  is_stmt 1
        movq      (%r8), %rax                                   #lbm.c:198.22
..LN1357:
	.loc    1  196  is_stmt 1
        incl      %ebx                                          #lbm.c:196.3
..LN1358:
	.loc    1  200  is_stmt 1
        movq      16(%r8), %rdx                                 #lbm.c:200.22
..LN1359:
	.loc    1  201  is_stmt 1
        movq      24(%r8), %rcx                                 #lbm.c:201.22
..LN1360:
	.loc    1  212  is_stmt 1
        movq      %r11, 232(%rsp)                               #lbm.c:212.22
..LN1361:
	.loc    1  203  is_stmt 1
        movq      40(%r8), %rsi                                 #lbm.c:203.22
..LN1362:
	.loc    1  205  is_stmt 1
        movq      56(%r8), %rdi                                 #lbm.c:205.22
..LN1363:
	.loc    1  206  is_stmt 1
        movq      64(%r8), %r9                                  #lbm.c:206.22
..LN1364:
	.loc    1  213  is_stmt 1
        movq      48(%r13), %r11                                #lbm.c:213.22
..LN1365:
	.loc    1  198  is_stmt 1
        movq      %rax, 224(%rsp)                               #lbm.c:198.22
..LN1366:
	.loc    1  200  is_stmt 1
        movq      %rdx, 1504(%rsp)                              #lbm.c:200.22
..LN1367:
	.loc    1  201  is_stmt 1
        movq      %rcx, 128(%rsp)                               #lbm.c:201.22
..LN1368:
	.loc    1  199  is_stmt 1
        movq      8(%r8), %rax                                  #lbm.c:199.22
..LN1369:
	.loc    1  202  is_stmt 1
        movq      32(%r8), %rdx                                 #lbm.c:202.22
..LN1370:
	.loc    1  204  is_stmt 1
        movq      48(%r8), %rcx                                 #lbm.c:204.22
..LN1371:
	.loc    1  203  is_stmt 1
        movq      %rsi, 1488(%rsp)                              #lbm.c:203.22
..LN1372:
	.loc    1  205  is_stmt 1
        movq      %rdi, 1480(%rsp)                              #lbm.c:205.22
..LN1373:
	.loc    1  206  is_stmt 1
        movq      %r9, 1496(%rsp)                               #lbm.c:206.22
..LN1374:
	.loc    1  213  is_stmt 1
        movq      %r11, 176(%rsp)                               #lbm.c:213.22
..LN1375:
	.loc    1  207  is_stmt 1
        movq      (%r13), %rsi                                  #lbm.c:207.22
..LN1376:
	.loc    1  208  is_stmt 1
        movq      8(%r13), %rdi                                 #lbm.c:208.22
..LN1377:
	.loc    1  209  is_stmt 1
        movq      16(%r13), %r8                                 #lbm.c:209.22
..LN1378:
	.loc    1  210  is_stmt 1
        movq      24(%r13), %r9                                 #lbm.c:210.22
..LN1379:
	.loc    1  211  is_stmt 1
        movq      32(%r13), %r10                                #lbm.c:211.22
..LN1380:
	.loc    1  214  is_stmt 1
        movq      56(%r13), %r11                                #lbm.c:214.22
..LN1381:
	.loc    1  215  is_stmt 1
        movq      64(%r13), %r13                                #lbm.c:215.22
..LN1382:
	.loc    1  217  is_stmt 1
        movl      %r15d, 216(%rsp)                              #lbm.c:217.17
..LN1383:
	.loc    1  215  is_stmt 1
        movq      %r13, 120(%rsp)                               #lbm.c:215.22
..LN1384:
	.loc    1  229  is_stmt 1
        lea       -1(%r14), %r13d                               #lbm.c:229.24
..LN1385:
	.loc    1  217  is_stmt 1
        movslq    %r15d, %r15                                   #lbm.c:217.5
..LN1386:
	.loc    1  229  is_stmt 1
        imull     %r15d, %r13d                                  #lbm.c:229.24
..LN1387:
	.loc    1  291  is_stmt 1
        vmovss    72(%rsp), %xmm0                               #lbm.c:291.55
..LN1388:
	.loc    1  244  is_stmt 1
        vmovss    .L_2il0floatpacket.11(%rip), %xmm4            #lbm.c:244.59
..LN1389:
	.loc    1  292  is_stmt 1
        vaddss    %xmm0, %xmm0, %xmm2                           #lbm.c:292.67
..LN1390:
	.loc    1  291  is_stmt 1
        vdivss    %xmm0, %xmm4, %xmm3                           #lbm.c:291.55
..LN1391:
	.loc    1  229  is_stmt 1
        addl      %r15d, %r13d                                  #lbm.c:229.24
..LN1392:
        movl      %r13d, 112(%rsp)                              #lbm.c:229.24
..LN1393:
	.loc    1  230  is_stmt 1
        movl      %r14d, %r13d                                  #lbm.c:230.48
..LN1394:
	.loc    1  292  is_stmt 1
        vmulss    %xmm2, %xmm0, %xmm1                           #lbm.c:292.74
..LN1395:
	.loc    1  223  is_stmt 1
        addl      %r12d, %r14d                                  #lbm.c:223.41
..LN1396:
	.loc    1  230  is_stmt 1
        imull     %r15d, %r13d                                  #lbm.c:230.48
..LN1397:
	.loc    1  293  is_stmt 1
        vdivss    %xmm2, %xmm4, %xmm0                           #lbm.c:293.58
..LN1398:
	.loc    1  292  is_stmt 1
        vdivss    %xmm1, %xmm4, %xmm1                           #lbm.c:292.74
..LN1399:
	.loc    1  197  is_stmt 1
        movl      $0, 88(%rsp)                                  #lbm.c:197.3
..LN1400:
	.loc    1  217  is_stmt 1
        movq      %r15, 1472(%rsp)                              #lbm.c:217.5
..LN1401:
	.loc    1  230  is_stmt 1
        movl      %r13d, 208(%rsp)                              #lbm.c:230.48
..LN1402:
	.loc    1  223  is_stmt 1
        movl      %r14d, 104(%rsp)                              #lbm.c:223.41
..LN1403:
	.loc    1  217  is_stmt 1
        movq      176(%rsp), %r13                               #lbm.c:217.44
..LN1404:
        testl     %r15d, %r15d                                  #lbm.c:217.44
..LN1405:
        jle       ..B2.44       # Prob 50%                      #lbm.c:217.44
..LN1406:
                                # LOE rax rdx rcx rsi rdi r8 r9 r10 r11 r13 ebx r12d r13d r13b xmm0 xmm1 xmm3 xmm4 xmm5
..B2.13:                        # Preds ..B2.12
..LN1407:
	.loc    1  198  is_stmt 1
        movq      224(%rsp), %r14                               #lbm.c:198.40
..LN1408:
        movq      1504(%rsp), %r15                              #lbm.c:198.40
..LN1409:
        movq      %r14, 224(%rsp)                               #lbm.c:198.40
..LN1410:
        movq      %r15, 1504(%rsp)                              #lbm.c:198.40
..LN1411:
        movq      128(%rsp), %r14                               #lbm.c:198.40
..LN1412:
        movq      1488(%rsp), %r15                              #lbm.c:198.40
..LN1413:
        movq      %r14, 128(%rsp)                               #lbm.c:198.40
..LN1414:
        movq      %r15, 1488(%rsp)                              #lbm.c:198.40
..LN1415:
        movq      1480(%rsp), %r14                              #lbm.c:198.40
..LN1416:
        movq      1496(%rsp), %r15                              #lbm.c:198.40
..LN1417:
        movq      %r14, 1480(%rsp)                              #lbm.c:198.40
..LN1418:
        movq      %r15, 1496(%rsp)                              #lbm.c:198.40
..LN1419:
        movq      232(%rsp), %r14                               #lbm.c:198.40
..LN1420:
	.loc    1  215  is_stmt 1
        movq      120(%rsp), %r15                               #lbm.c:215.44
..LN1421:
        movq      %rcx, 1600(%rsp)                              #lbm.c:215.44
..LN1422:
	.loc    1  198  is_stmt 1
        movq      %r14, 232(%rsp)                               #lbm.c:198.40
..LN1423:
	.loc    1  215  is_stmt 1
        movq      %r15, 168(%rsp)                               #lbm.c:215.44
..LN1424:
        vmovss    %xmm0, 1144(%rsp)                             #lbm.c:215.44
..LN1425:
        vmovss    %xmm1, 1152(%rsp)                             #lbm.c:215.44
..LN1426:
        vmovss    %xmm3, 1160(%rsp)                             #lbm.c:215.44
..LN1427:
        vmovss    %xmm5, 152(%rsp)                              #lbm.c:215.44
..LN1428:
        movq      %r11, 240(%rsp)                               #lbm.c:215.44
..LN1429:
        movq      %r13, 176(%rsp)                               #lbm.c:215.44
..LN1430:
        movq      %r10, 248(%rsp)                               #lbm.c:215.44
..LN1431:
        movq      %r9, 256(%rsp)                                #lbm.c:215.44
..LN1432:
        movq      %r8, 264(%rsp)                                #lbm.c:215.44
..LN1433:
        movq      %rdi, 272(%rsp)                               #lbm.c:215.44
..LN1434:
        movq      %rsi, 280(%rsp)                               #lbm.c:215.44
..LN1435:
        movq      %rdx, 1528(%rsp)                              #lbm.c:215.44
..LN1436:
        movq      %rax, 136(%rsp)                               #lbm.c:215.44
..LN1437:
        movl      %ebx, 144(%rsp)                               #lbm.c:215.44
..LN1438:
        movl      %r12d, 288(%rsp)                              #lbm.c:215.44
..LN1439:
        vmovss    312(%rsp), %xmm10                             #lbm.c:215.44
..LN1440:
        movl      88(%rsp), %ecx                                #lbm.c:215.44
..LN1441:
                                # LOE ecx xmm10
..B2.14:                        # Preds ..B2.42 ..B2.13
..LN1442:
	.loc    1  217  is_stmt 1
        cmpq      $8, 1472(%rsp)                                #lbm.c:217.5
..LN1443:
        jl        ..B2.52       # Prob 10%                      #lbm.c:217.5
..LN1444:
                                # LOE ecx xmm10
..B2.15:                        # Preds ..B2.14
..LN1445:
	.loc    1  328  is_stmt 1
        movl      216(%rsp), %r12d                              #lbm.c:328.9
..LN1446:
        imull     %ecx, %r12d                                   #lbm.c:328.9
..LN1447:
        movl      112(%rsp), %eax                               #lbm.c:328.9
..LN1448:
        movq      120(%rsp), %r14                               #lbm.c:328.9
..LN1449:
        addl      %r12d, %eax                                   #lbm.c:328.9
..LN1450:
        movslq    %eax, %rax                                    #lbm.c:328.9
..LN1451:
        lea       (%r14,%rax,4), %r14                           #lbm.c:328.9
..LN1452:
        movq      %r14, 1592(%rsp)                              #lbm.c:328.9
..LN1453:
	.loc    1  217  is_stmt 1
        andq      $31, %r14                                     #lbm.c:217.5
..LN1454:
        movl      %r14d, %r13d                                  #lbm.c:217.5
..LN1455:
        negl      %r13d                                         #lbm.c:217.5
..LN1456:
        addl      $32, %r13d                                    #lbm.c:217.5
..LN1457:
        shrl      $2, %r13d                                     #lbm.c:217.5
..LN1458:
        testl     %r14d, %r14d                                  #lbm.c:217.5
..LN1459:
        cmovne    %r13d, %r14d                                  #lbm.c:217.5
..LN1460:
        movl      %r14d, %r13d                                  #lbm.c:217.5
..LN1461:
        lea       8(%r13), %rdx                                 #lbm.c:217.5
..LN1462:
        cmpq      1472(%rsp), %rdx                              #lbm.c:217.5
..LN1463:
        jg        ..B2.52       # Prob 10%                      #lbm.c:217.5
..LN1464:
                                # LOE rax r13 ecx r12d r14d xmm10
..B2.16:                        # Preds ..B2.15
..LN1465:
	.loc    1  296  is_stmt 1
        movq      200(%rsp), %r9                                #lbm.c:296.27
..LN1466:
	.loc    1  321  is_stmt 1
        movq      272(%rsp), %r8                                #lbm.c:321.9
..LN1467:
	.loc    1  320  is_stmt 1
        movq      280(%rsp), %rdi                               #lbm.c:320.9
..LN1468:
	.loc    1  229  is_stmt 1
        movq      224(%rsp), %r10                               #lbm.c:229.24
..LN1469:
	.loc    1  296  is_stmt 1
        lea       (%r9,%rax,4), %r11                            #lbm.c:296.27
..LN1470:
        movq      %r11, 1608(%rsp)                              #lbm.c:296.27
..LN1471:
	.loc    1  321  is_stmt 1
        lea       (%r8,%rax,4), %r15                            #lbm.c:321.9
..LN1472:
	.loc    1  322  is_stmt 1
        movq      264(%rsp), %r11                               #lbm.c:322.9
..LN1473:
	.loc    1  320  is_stmt 1
        lea       (%rdi,%rax,4), %r9                            #lbm.c:320.9
..LN1474:
	.loc    1  321  is_stmt 1
        movq      %r15, 1584(%rsp)                              #lbm.c:321.9
..LN1475:
	.loc    1  229  is_stmt 1
        lea       (%r10,%rax,4), %r10                           #lbm.c:229.24
..LN1476:
	.loc    1  323  is_stmt 1
        movq      256(%rsp), %rdi                               #lbm.c:323.9
..LN1477:
	.loc    1  324  is_stmt 1
        movq      248(%rsp), %r15                               #lbm.c:324.9
..LN1478:
	.loc    1  322  is_stmt 1
        lea       (%r11,%rax,4), %rdx                           #lbm.c:322.9
..LN1479:
        movq      %rdx, 1576(%rsp)                              #lbm.c:322.9
..LN1480:
	.loc    1  325  is_stmt 1
        movq      232(%rsp), %rdx                               #lbm.c:325.9
..LN1481:
	.loc    1  323  is_stmt 1
        lea       (%rdi,%rax,4), %r8                            #lbm.c:323.9
..LN1482:
        movq      %r8, 1536(%rsp)                               #lbm.c:323.9
..LN1483:
	.loc    1  324  is_stmt 1
        lea       (%r15,%rax,4), %r11                           #lbm.c:324.9
..LN1484:
        movq      %r11, 1544(%rsp)                              #lbm.c:324.9
..LN1485:
	.loc    1  326  is_stmt 1
        movq      176(%rsp), %r8                                #lbm.c:326.9
..LN1486:
	.loc    1  325  is_stmt 1
        lea       (%rdx,%rax,4), %rdi                           #lbm.c:325.9
..LN1487:
	.loc    1  327  is_stmt 1
        movq      240(%rsp), %r11                               #lbm.c:327.9
..LN1488:
	.loc    1  197  is_stmt 1
        movl      192(%rsp), %edx                               #lbm.c:197.36
..LN1489:
	.loc    1  217  is_stmt 1
        movl      216(%rsp), %ebx                               #lbm.c:217.5
..LN1490:
	.loc    1  326  is_stmt 1
        lea       (%r8,%rax,4), %r15                            #lbm.c:326.9
..LN1491:
	.loc    1  217  is_stmt 1
        movl      %ebx, %esi                                    #lbm.c:217.5
..LN1492:
	.loc    1  327  is_stmt 1
        lea       (%r11,%rax,4), %r11                           #lbm.c:327.9
..LN1493:
	.loc    1  217  is_stmt 1
        subl      %r14d, %esi                                   #lbm.c:217.5
..LN1494:
	.loc    1  197  is_stmt 1
        lea       (%rdx,%rcx), %eax                             #lbm.c:197.36
..LN1495:
        movl      %eax, 1568(%rsp)                              #lbm.c:197.36
..LN1496:
	.loc    1  221  is_stmt 1
        lea       1(%rdx,%rcx), %eax                            #lbm.c:221.29
..LN1497:
        cltd                                                    #lbm.c:221.34
..LN1498:
        idivl     288(%rsp)                                     #lbm.c:221.34
..LN1499:
	.loc    1  217  is_stmt 1
        andl      $7, %esi                                      #lbm.c:217.5
..LN1500:
        negl      %esi                                          #lbm.c:217.5
..LN1501:
        addl      %ebx, %esi                                    #lbm.c:217.5
..LN1502:
	.loc    1  233  is_stmt 1
        imull     %edx, %ebx                                    #lbm.c:233.48
..LN1503:
	.loc    1  230  is_stmt 1
        addl      208(%rsp), %r12d                              #lbm.c:230.48
..LN1504:
	.loc    1  217  is_stmt 1
        movslq    %esi, %rsi                                    #lbm.c:217.5
..LN1505:
        movq      %rsi, 1512(%rsp)                              #lbm.c:217.5
..LN1506:
        xorl      %esi, %esi                                    #lbm.c:217.5
..LN1507:
	.loc    1  325  is_stmt 1
        movq      %rdi, 1560(%rsp)                              #lbm.c:325.9
..LN1508:
	.loc    1  326  is_stmt 1
        movq      %r15, 1552(%rsp)                              #lbm.c:326.9
..LN1509:
	.loc    1  233  is_stmt 1
        movslq    %ebx, %rbx                                    #lbm.c:233.24
..LN1510:
	.loc    1  217  is_stmt 1
        testq     %r13, %r13                                    #lbm.c:217.5
..LN1511:
        jbe       ..B2.26       # Prob 10%                      #lbm.c:217.5
..LN1512:
                                # LOE rbx rsi r9 r10 r11 r13 edx ecx r12d r14d xmm10
..B2.17:                        # Preds ..B2.16
..LN1513:
	.loc    1  230  is_stmt 1
        movslq    %r12d, %r12                                   #lbm.c:230.24
..LN1514:
        movq      136(%rsp), %rdi                               #lbm.c:230.24
..LN1515:
	.loc    1  223  is_stmt 1
        movl      192(%rsp), %eax                               #lbm.c:223.64
..LN1516:
	.loc    1  232  is_stmt 1
        movq      128(%rsp), %r15                               #lbm.c:232.24
..LN1517:
	.loc    1  217  is_stmt 1
        movl      %r12d, 56(%rsp)                               #lbm.c:217.5
..LN1518:
	.loc    1  230  is_stmt 1
        lea       (%rdi,%r12,4), %r8                            #lbm.c:230.24
..LN1519:
        movq      %r8, 1880(%rsp)                               #lbm.c:230.24
..LN1520:
	.loc    1  223  is_stmt 1
        lea       -1(%rax,%rcx), %eax                           #lbm.c:223.64
..LN1521:
        movl      104(%rsp), %r8d                               #lbm.c:223.53
..LN1522:
	.loc    1  232  is_stmt 1
        lea       (%r15,%r12,4), %rdi                           #lbm.c:232.24
..LN1523:
	.loc    1  217  is_stmt 1
        movl      %ecx, 88(%rsp)                                #lbm.c:217.5
..LN1524:
        vmovss    %xmm10, 312(%rsp)                             #lbm.c:217.5
..LN1525:
        movl      %eax, 1520(%rsp)                              #lbm.c:217.5
..LN1526:
	.loc    1  223  is_stmt 1
        lea       -1(%r8,%rcx), %r15d                           #lbm.c:223.53
..LN1527:
	.loc    1  217  is_stmt 1
        movl      %r15d, 1624(%rsp)                             #lbm.c:217.5
..LN1528:
        movq      %rbx, %r8                                     #lbm.c:217.5
..LN1529:
        movl      %edx, 64(%rsp)                                #lbm.c:217.5
..LN1530:
        movq      %r13, 1616(%rsp)                              #lbm.c:217.5
..LN1531:
        movl      %r14d, 72(%rsp)                               #lbm.c:217.5
..LN1532:
        vmovss    152(%rsp), %xmm14                             #lbm.c:217.5
..LN1533:
        movl      216(%rsp), %ecx                               #lbm.c:217.5
..LN1534:
        movl      96(%rsp), %r12d                               #lbm.c:217.5
..LN1535:
                                # LOE rbx rsi rdi r8 r9 r10 r11 ecx r12d xmm14
..B2.18:                        # Preds ..B2.24 ..B2.17
..L121:         # optimization report
                # PEELED LOOP FOR VECTORIZATION
                # SIMD LOOP
                # VECTORIZATION SPEEDUP COEFFECIENT 5.484375
                # VECTOR TRIP COUNT IS ESTIMATED CONSTANT
                # VECTOR LENGTH 8
                # NORMALIZED VECTORIZATION OVERHEAD 0.312500
..LN1536:
	.loc    1  222  is_stmt 1
        movl      %esi, %eax                                    #lbm.c:222.34
..LN1537:
        incl      %eax                                          #lbm.c:222.29
..LN1538:
        cltd                                                    #lbm.c:222.34
..LN1539:
        idivl     %ecx                                          #lbm.c:222.34
..LN1540:
	.loc    1  233  is_stmt 1
        movq      1528(%rsp), %r15                              #lbm.c:233.24
..LN1541:
	.loc    1  224  is_stmt 1
        movq      1472(%rsp), %r14                              #lbm.c:224.53
..LN1542:
	.loc    1  229  is_stmt 1
        vmovss    (%r10,%rsi,4), %xmm1                          #lbm.c:229.24
..LN1543:
	.loc    1  233  is_stmt 1
        vmovss    (%r15,%r8,4), %xmm6                           #lbm.c:233.24
..LN1544:
	.loc    1  224  is_stmt 1
        movslq    %esi, %r15                                    #lbm.c:224.30
..LN1545:
	.loc    1  222  is_stmt 1
        movslq    %edx, %rdx                                    #lbm.c:222.34
..LN1546:
	.loc    1  224  is_stmt 1
        lea       -1(%r15,%r14), %r13                           #lbm.c:224.53
..LN1547:
        decq      %r15                                          #lbm.c:224.64
..LN1548:
        testq     %rsi, %rsi                                    #lbm.c:224.30
..LN1549:
	.loc    1  230  is_stmt 1
        movq      1880(%rsp), %r14                              #lbm.c:230.24
..LN1550:
	.loc    1  224  is_stmt 1
        cmove     %r13, %r15                                    #lbm.c:224.30
..LN1551:
	.loc    1  231  is_stmt 1
        cmpl      $0, 1568(%rsp)                                #lbm.c:231.24
..LN1552:
        movq      1504(%rsp), %r13                              #lbm.c:231.24
..LN1553:
	.loc    1  232  is_stmt 1
        vmovss    (%rdi,%rdx,4), %xmm5                          #lbm.c:232.24
..LN1554:
	.loc    1  230  is_stmt 1
        vmovss    (%r14,%r15,4), %xmm12                         #lbm.c:230.24
..LN1555:
	.loc    1  231  is_stmt 1
        movl      1520(%rsp), %r14d                             #lbm.c:231.24
..LN1556:
	.loc    1  241  is_stmt 1
        vaddss    %xmm12, %xmm1, %xmm9                          #lbm.c:241.40
..LN1557:
	.loc    1  244  is_stmt 1
        vsubss    %xmm5, %xmm12, %xmm2                          #lbm.c:244.52
..LN1558:
	.loc    1  231  is_stmt 1
        cmove     1624(%rsp), %r14d                             #lbm.c:231.24
..LN1559:
        imull     %ecx, %r14d                                   #lbm.c:231.48
..LN1560:
        movslq    %r14d, %r14                                   #lbm.c:231.24
..LN1561:
        lea       (%rsi,%r14), %rax                             #lbm.c:231.48
..LN1562:
        vmovss    (%r13,%rax,4), %xmm11                         #lbm.c:231.24
..LN1563:
	.loc    1  234  is_stmt 1
        lea       (%r14,%r15), %r13                             #lbm.c:234.49
..LN1564:
	.loc    1  296  is_stmt 1
        movq      1608(%rsp), %rax                              #lbm.c:296.59
..LN1565:
	.loc    1  235  is_stmt 1
        addq      %rdx, %r14                                    #lbm.c:235.49
..LN1566:
	.loc    1  236  is_stmt 1
        addq      %rbx, %rdx                                    #lbm.c:236.49
..LN1567:
	.loc    1  237  is_stmt 1
        addq      %rbx, %r15                                    #lbm.c:237.49
..LN1568:
	.loc    1  241  is_stmt 1
        vaddss    %xmm11, %xmm9, %xmm10                         #lbm.c:241.45
..LN1569:
	.loc    1  247  is_stmt 1
        vsubss    %xmm6, %xmm11, %xmm3                          #lbm.c:247.52
..LN1570:
	.loc    1  241  is_stmt 1
        vaddss    %xmm5, %xmm10, %xmm8                          #lbm.c:241.50
..LN1571:
	.loc    1  296  is_stmt 1
        cmpl      $0, (%rax,%rsi,4)                             #lbm.c:296.59
..LN1572:
	.loc    1  241  is_stmt 1
        vaddss    %xmm6, %xmm8, %xmm15                          #lbm.c:241.55
..LN1573:
	.loc    1  234  is_stmt 1
        movq      1488(%rsp), %rax                              #lbm.c:234.24
..LN1574:
        vmovss    (%rax,%r13,4), %xmm9                          #lbm.c:234.24
..LN1575:
	.loc    1  235  is_stmt 1
        movq      1600(%rsp), %r13                              #lbm.c:235.24
..LN1576:
	.loc    1  241  is_stmt 1
        vaddss    %xmm9, %xmm15, %xmm13                         #lbm.c:241.60
..LN1577:
	.loc    1  244  is_stmt 1
        vaddss    %xmm9, %xmm2, %xmm4                           #lbm.c:244.31
..LN1578:
	.loc    1  235  is_stmt 1
        vmovss    (%r13,%r14,4), %xmm10                         #lbm.c:235.24
..LN1579:
	.loc    1  236  is_stmt 1
        movq      1480(%rsp), %r14                              #lbm.c:236.24
..LN1580:
	.loc    1  241  is_stmt 1
        vaddss    %xmm10, %xmm13, %xmm7                         #lbm.c:241.65
..LN1581:
	.loc    1  244  is_stmt 1
        vsubss    %xmm10, %xmm4, %xmm15                         #lbm.c:244.52
..LN1582:
	.loc    1  236  is_stmt 1
        vmovss    (%r14,%rdx,4), %xmm8                          #lbm.c:236.24
..LN1583:
	.loc    1  237  is_stmt 1
        movq      1496(%rsp), %rdx                              #lbm.c:237.24
..LN1584:
	.loc    1  241  is_stmt 1
        vaddss    %xmm8, %xmm7, %xmm2                           #lbm.c:241.70
..LN1585:
	.loc    1  244  is_stmt 1
        vsubss    %xmm8, %xmm15, %xmm0                          #lbm.c:244.52
..LN1586:
	.loc    1  247  is_stmt 1
        vaddss    %xmm9, %xmm3, %xmm7                           #lbm.c:247.31
..LN1587:
	.loc    1  237  is_stmt 1
        vmovss    (%rdx,%r15,4), %xmm15                         #lbm.c:237.24
..LN1588:
	.loc    1  244  is_stmt 1
        vmovss    .L_2il0floatpacket.11(%rip), %xmm13           #lbm.c:244.59
..LN1589:
	.loc    1  241  is_stmt 1
        vaddss    %xmm15, %xmm2, %xmm2                          #lbm.c:241.75
..LN1590:
	.loc    1  244  is_stmt 1
        vaddss    %xmm15, %xmm0, %xmm4                          #lbm.c:244.36
..LN1591:
        vdivss    %xmm2, %xmm13, %xmm0                          #lbm.c:244.59
..LN1592:
        vmulss    %xmm0, %xmm4, %xmm13                          #lbm.c:244.59
..LN1593:
	.loc    1  247  is_stmt 1
        vaddss    %xmm10, %xmm7, %xmm4                          #lbm.c:247.36
..LN1594:
        vsubss    %xmm8, %xmm4, %xmm3                           #lbm.c:247.52
..LN1595:
	.loc    1  250  is_stmt 1
        vmulss    %xmm13, %xmm13, %xmm4                         #lbm.c:250.32
..LN1596:
	.loc    1  247  is_stmt 1
        vsubss    %xmm15, %xmm3, %xmm7                          #lbm.c:247.52
..LN1597:
        vmulss    %xmm0, %xmm7, %xmm0                           #lbm.c:247.59
..LN1598:
	.loc    1  250  is_stmt 1
        vmulss    %xmm0, %xmm0, %xmm3                           #lbm.c:250.44
..LN1599:
	.loc    1  256  is_stmt 1
        vxorps    .L_2il0floatpacket.24(%rip), %xmm13, %xmm7    #lbm.c:256.16
..LN1600:
	.loc    1  250  is_stmt 1
        vaddss    %xmm3, %xmm4, %xmm4                           #lbm.c:250.44
..LN1601:
	.loc    1  257  is_stmt 1
        vxorps    .L_2il0floatpacket.24(%rip), %xmm0, %xmm3     #lbm.c:257.22
..LN1602:
	.loc    1  256  is_stmt 1
        vmovss    %xmm7, 1672(%rsp)                             #lbm.c:256.16
..LN1603:
	.loc    1  258  is_stmt 1
        vaddss    %xmm0, %xmm13, %xmm7                          #lbm.c:258.22
..LN1604:
	.loc    1  257  is_stmt 1
        vmovss    %xmm3, 1664(%rsp)                             #lbm.c:257.22
..LN1605:
	.loc    1  259  is_stmt 1
        vsubss    %xmm13, %xmm0, %xmm3                          #lbm.c:259.22
..LN1606:
	.loc    1  258  is_stmt 1
        vmovss    %xmm7, 1648(%rsp)                             #lbm.c:258.22
..LN1607:
	.loc    1  259  is_stmt 1
        vmovss    %xmm3, 1656(%rsp)                             #lbm.c:259.22
..LN1608:
	.loc    1  260  is_stmt 1
        vxorps    .L_2il0floatpacket.24(%rip), %xmm7, %xmm7     #lbm.c:260.22
..LN1609:
	.loc    1  261  is_stmt 1
        vxorps    .L_2il0floatpacket.24(%rip), %xmm3, %xmm3     #lbm.c:261.22
..LN1610:
	.loc    1  260  is_stmt 1
        vmovss    %xmm7, 1632(%rsp)                             #lbm.c:260.22
..LN1611:
	.loc    1  261  is_stmt 1
        vmovss    %xmm3, 1640(%rsp)                             #lbm.c:261.22
..LN1612:
	.loc    1  296  is_stmt 1
        je        ..B2.20       # Prob 50%                      #lbm.c:296.59
..LN1613:
                                # LOE rbx rsi rdi r8 r9 r10 r11 ecx r12d xmm0 xmm1 xmm2 xmm4 xmm5 xmm6 xmm8 xmm9 xmm10 xmm11 xmm12 xmm13 xmm14 xmm15
..B2.19:                        # Preds ..B2.18
..LN1614:
	.loc    1  297  is_stmt 1
        vmovaps   %xmm5, %xmm13                                 #lbm.c:297.59
..LN1615:
	.loc    1  298  is_stmt 1
        vmovaps   %xmm6, %xmm0                                  #lbm.c:298.59
..LN1616:
	.loc    1  301  is_stmt 1
        vmovaps   %xmm8, %xmm5                                  #lbm.c:301.59
..LN1617:
        jmp       ..B2.21       # Prob 100%                     #lbm.c:301.59
..LN1618:
                                # LOE rbx rsi rdi r8 r9 r10 r11 ecx r12d xmm0 xmm1 xmm5 xmm9 xmm10 xmm11 xmm12 xmm13 xmm14 xmm15
..B2.20:                        # Preds ..B2.18
..LN1619:
	.loc    1  267  is_stmt 1
        vmulss    1144(%rsp), %xmm4, %xmm7                      #lbm.c:267.43
..LN1620:
        vmovss    %xmm15, 1168(%rsp)                            #
..LN1621:
        vmovss    .L_2il0floatpacket.11(%rip), %xmm15           #lbm.c:267.43
..LN1622:
        vsubss    %xmm7, %xmm15, %xmm7                          #lbm.c:267.43
..LN1623:
	.loc    1  266  is_stmt 1
        vmulss    1120(%rsp), %xmm2, %xmm15                     #lbm.c:266.25
..LN1624:
	.loc    1  267  is_stmt 1
        vmulss    %xmm7, %xmm15, %xmm4                          #lbm.c:267.43
..LN1625:
	.loc    1  296  is_stmt 1
        vsubss    %xmm1, %xmm4, %xmm3                           #lbm.c:296.102
..LN1626:
	.loc    1  271  is_stmt 1
        vmovss    1160(%rsp), %xmm4                             #lbm.c:271.58
..LN1627:
	.loc    1  296  is_stmt 1
        vmulss    %xmm3, %xmm14, %xmm15                         #lbm.c:296.102
..LN1628:
	.loc    1  270  is_stmt 1
        vmovss    1152(%rsp), %xmm3                             #lbm.c:270.74
..LN1629:
	.loc    1  296  is_stmt 1
        vaddss    %xmm15, %xmm1, %xmm1                          #lbm.c:296.102
..LN1630:
	.loc    1  270  is_stmt 1
        vmulss    %xmm3, %xmm13, %xmm15                         #lbm.c:270.74
..LN1631:
	.loc    1  296  is_stmt 1
        vmovss    %xmm1, 1176(%rsp)                             #lbm.c:296.102
..LN1632:
	.loc    1  271  is_stmt 1
        vaddss    %xmm15, %xmm4, %xmm15                         #lbm.c:271.58
..LN1633:
	.loc    1  269  is_stmt 1
        vmulss    1136(%rsp), %xmm2, %xmm1                      #lbm.c:269.25
..LN1634:
	.loc    1  282  is_stmt 1
        vmulss    1128(%rsp), %xmm2, %xmm2                      #lbm.c:282.25
..LN1635:
	.loc    1  271  is_stmt 1
        vmulss    %xmm13, %xmm15, %xmm13                        #lbm.c:271.58
..LN1636:
        vaddss    %xmm7, %xmm13, %xmm13                         #lbm.c:271.58
..LN1637:
        vmulss    %xmm13, %xmm1, %xmm15                         #lbm.c:271.58
..LN1638:
	.loc    1  297  is_stmt 1
        vsubss    %xmm12, %xmm15, %xmm13                        #lbm.c:297.102
..LN1639:
        vmulss    %xmm13, %xmm14, %xmm15                        #lbm.c:297.102
..LN1640:
        vaddss    %xmm15, %xmm12, %xmm13                        #lbm.c:297.102
..LN1641:
	.loc    1  273  is_stmt 1
        vmulss    %xmm3, %xmm0, %xmm12                          #lbm.c:273.74
..LN1642:
	.loc    1  274  is_stmt 1
        vaddss    %xmm12, %xmm4, %xmm12                         #lbm.c:274.58
..LN1643:
        vmulss    %xmm0, %xmm12, %xmm0                          #lbm.c:274.58
..LN1644:
        vaddss    %xmm7, %xmm0, %xmm0                           #lbm.c:274.58
..LN1645:
        vmulss    %xmm0, %xmm1, %xmm12                          #lbm.c:274.58
..LN1646:
	.loc    1  298  is_stmt 1
        vsubss    %xmm11, %xmm12, %xmm15                        #lbm.c:298.102
..LN1647:
        vmulss    %xmm15, %xmm14, %xmm0                         #lbm.c:298.102
..LN1648:
	.loc    1  276  is_stmt 1
        vmovss    1672(%rsp), %xmm15                            #lbm.c:276.74
..LN1649:
	.loc    1  298  is_stmt 1
        vaddss    %xmm0, %xmm11, %xmm0                          #lbm.c:298.102
..LN1650:
	.loc    1  276  is_stmt 1
        vmulss    %xmm15, %xmm3, %xmm11                         #lbm.c:276.74
..LN1651:
        vaddss    %xmm11, %xmm4, %xmm12                         #lbm.c:276.74
..LN1652:
        vmulss    %xmm15, %xmm12, %xmm11                        #lbm.c:276.74
..LN1653:
        vaddss    %xmm7, %xmm11, %xmm12                         #lbm.c:276.74
..LN1654:
	.loc    1  277  is_stmt 1
        vmulss    %xmm12, %xmm1, %xmm11                         #lbm.c:277.58
..LN1655:
	.loc    1  299  is_stmt 1
        vsubss    %xmm5, %xmm11, %xmm15                         #lbm.c:299.102
..LN1656:
        vmulss    %xmm15, %xmm14, %xmm12                        #lbm.c:299.102
..LN1657:
	.loc    1  279  is_stmt 1
        vmovss    1664(%rsp), %xmm15                            #lbm.c:279.74
..LN1658:
	.loc    1  299  is_stmt 1
        vaddss    %xmm12, %xmm5, %xmm12                         #lbm.c:299.102
..LN1659:
	.loc    1  279  is_stmt 1
        vmulss    %xmm15, %xmm3, %xmm5                          #lbm.c:279.74
..LN1660:
        vaddss    %xmm5, %xmm4, %xmm11                          #lbm.c:279.74
..LN1661:
        vmulss    %xmm15, %xmm11, %xmm5                         #lbm.c:279.74
..LN1662:
	.loc    1  283  is_stmt 1
        vmovss    1648(%rsp), %xmm15                            #lbm.c:283.74
..LN1663:
	.loc    1  279  is_stmt 1
        vaddss    %xmm7, %xmm5, %xmm11                          #lbm.c:279.74
..LN1664:
	.loc    1  280  is_stmt 1
        vmulss    %xmm11, %xmm1, %xmm1                          #lbm.c:280.58
..LN1665:
	.loc    1  300  is_stmt 1
        vsubss    %xmm6, %xmm1, %xmm11                          #lbm.c:300.102
..LN1666:
        vmulss    %xmm11, %xmm14, %xmm5                         #lbm.c:300.102
..LN1667:
        vaddss    %xmm5, %xmm6, %xmm11                          #lbm.c:300.102
..LN1668:
	.loc    1  283  is_stmt 1
        vmulss    %xmm15, %xmm3, %xmm6                          #lbm.c:283.74
..LN1669:
        vaddss    %xmm6, %xmm4, %xmm5                           #lbm.c:283.74
..LN1670:
        vmulss    %xmm15, %xmm5, %xmm1                          #lbm.c:283.74
..LN1671:
        vaddss    %xmm7, %xmm1, %xmm6                           #lbm.c:283.74
..LN1672:
	.loc    1  284  is_stmt 1
        vmulss    %xmm6, %xmm2, %xmm5                           #lbm.c:284.58
..LN1673:
	.loc    1  301  is_stmt 1
        vsubss    %xmm9, %xmm5, %xmm15                          #lbm.c:301.102
..LN1674:
        vmulss    %xmm15, %xmm14, %xmm1                         #lbm.c:301.102
..LN1675:
        vaddss    %xmm1, %xmm9, %xmm5                           #lbm.c:301.102
..LN1676:
	.loc    1  286  is_stmt 1
        vmovss    1656(%rsp), %xmm1                             #lbm.c:286.74
..LN1677:
        vmulss    %xmm1, %xmm3, %xmm9                           #lbm.c:286.74
..LN1678:
        vaddss    %xmm9, %xmm4, %xmm15                          #lbm.c:286.74
..LN1679:
        vmulss    %xmm1, %xmm15, %xmm9                          #lbm.c:286.74
..LN1680:
        vaddss    %xmm7, %xmm9, %xmm6                           #lbm.c:286.74
..LN1681:
	.loc    1  287  is_stmt 1
        vmulss    %xmm6, %xmm2, %xmm15                          #lbm.c:287.58
..LN1682:
	.loc    1  302  is_stmt 1
        vsubss    %xmm10, %xmm15, %xmm9                         #lbm.c:302.102
..LN1683:
        vmulss    %xmm9, %xmm14, %xmm1                          #lbm.c:302.102
..LN1684:
        vaddss    %xmm1, %xmm10, %xmm15                         #lbm.c:302.102
..LN1685:
	.loc    1  289  is_stmt 1
        vmovss    1632(%rsp), %xmm1                             #lbm.c:289.74
..LN1686:
        vmulss    %xmm1, %xmm3, %xmm10                          #lbm.c:289.74
..LN1687:
        vaddss    %xmm10, %xmm4, %xmm9                          #lbm.c:289.74
..LN1688:
        vmulss    %xmm1, %xmm9, %xmm6                           #lbm.c:289.74
..LN1689:
        vaddss    %xmm7, %xmm6, %xmm10                          #lbm.c:289.74
..LN1690:
	.loc    1  290  is_stmt 1
        vmulss    %xmm10, %xmm2, %xmm9                          #lbm.c:290.58
..LN1691:
	.loc    1  303  is_stmt 1
        vsubss    %xmm8, %xmm9, %xmm1                           #lbm.c:303.102
..LN1692:
        vmulss    %xmm1, %xmm14, %xmm6                          #lbm.c:303.102
..LN1693:
	.loc    1  292  is_stmt 1
        vmovss    1640(%rsp), %xmm1                             #lbm.c:292.74
..LN1694:
	.loc    1  303  is_stmt 1
        vaddss    %xmm6, %xmm8, %xmm9                           #lbm.c:303.102
..LN1695:
	.loc    1  292  is_stmt 1
        vmulss    %xmm1, %xmm3, %xmm8                           #lbm.c:292.74
..LN1696:
        vaddss    %xmm8, %xmm4, %xmm3                           #lbm.c:292.74
..LN1697:
	.loc    1  304  is_stmt 1
        vmovss    1168(%rsp), %xmm8                             #lbm.c:304.102
..LN1698:
	.loc    1  292  is_stmt 1
        vmulss    %xmm1, %xmm3, %xmm4                           #lbm.c:292.74
..LN1699:
	.loc    1  304  is_stmt 1
        vmovss    1176(%rsp), %xmm1                             #lbm.c:304.102
..LN1700:
	.loc    1  292  is_stmt 1
        vaddss    %xmm7, %xmm4, %xmm6                           #lbm.c:292.74
..LN1701:
	.loc    1  293  is_stmt 1
        vmulss    %xmm6, %xmm2, %xmm2                           #lbm.c:293.58
..LN1702:
	.loc    1  304  is_stmt 1
        vsubss    %xmm8, %xmm2, %xmm7                           #lbm.c:304.102
..LN1703:
        vmulss    %xmm7, %xmm14, %xmm10                         #lbm.c:304.102
..LN1704:
        vaddss    %xmm10, %xmm8, %xmm10                         #lbm.c:304.102
..LN1705:
                                # LOE rbx rsi rdi r8 r9 r10 r11 ecx r12d xmm0 xmm1 xmm5 xmm9 xmm10 xmm11 xmm12 xmm13 xmm14 xmm15
..B2.21:                        # Preds ..B2.19 ..B2.20
..LN1706:
	.loc    1  308  is_stmt 1
        vaddss    %xmm13, %xmm1, %xmm2                          #lbm.c:308.44
..LN1707:
        vaddss    %xmm0, %xmm2, %xmm4                           #lbm.c:308.49
..LN1708:
        vaddss    %xmm12, %xmm4, %xmm6                          #lbm.c:308.54
..LN1709:
	.loc    1  311  is_stmt 1
        vmovss    .L_2il0floatpacket.11(%rip), %xmm4            #lbm.c:311.63
..LN1710:
	.loc    1  308  is_stmt 1
        vaddss    %xmm11, %xmm6, %xmm7                          #lbm.c:308.59
..LN1711:
        vaddss    %xmm5, %xmm7, %xmm8                           #lbm.c:308.64
..LN1712:
	.loc    1  311  is_stmt 1
        vsubss    %xmm12, %xmm13, %xmm7                         #lbm.c:311.56
..LN1713:
	.loc    1  308  is_stmt 1
        vaddss    %xmm15, %xmm8, %xmm3                          #lbm.c:308.69
..LN1714:
	.loc    1  311  is_stmt 1
        vaddss    %xmm5, %xmm7, %xmm8                           #lbm.c:311.35
..LN1715:
	.loc    1  313  is_stmt 1
        vsubss    %xmm11, %xmm0, %xmm7                          #lbm.c:313.56
..LN1716:
	.loc    1  308  is_stmt 1
        vaddss    %xmm9, %xmm3, %xmm2                           #lbm.c:308.74
..LN1717:
        vaddss    %xmm10, %xmm2, %xmm6                          #lbm.c:308.79
..LN1718:
	.loc    1  311  is_stmt 1
        vsubss    %xmm15, %xmm8, %xmm2                          #lbm.c:311.56
..LN1719:
	.loc    1  313  is_stmt 1
        vaddss    %xmm5, %xmm7, %xmm8                           #lbm.c:313.35
..LN1720:
	.loc    1  311  is_stmt 1
        vdivss    %xmm6, %xmm4, %xmm3                           #lbm.c:311.63
..LN1721:
        vsubss    %xmm9, %xmm2, %xmm4                           #lbm.c:311.56
..LN1722:
        vaddss    %xmm10, %xmm4, %xmm6                          #lbm.c:311.40
..LN1723:
	.loc    1  313  is_stmt 1
        vaddss    %xmm15, %xmm8, %xmm4                          #lbm.c:313.40
..LN1724:
	.loc    1  311  is_stmt 1
        vmulss    %xmm3, %xmm6, %xmm2                           #lbm.c:311.63
..LN1725:
	.loc    1  313  is_stmt 1
        vsubss    %xmm9, %xmm4, %xmm6                           #lbm.c:313.56
..LN1726:
        vsubss    %xmm10, %xmm6, %xmm7                          #lbm.c:313.56
..LN1727:
        vmulss    %xmm3, %xmm7, %xmm3                           #lbm.c:313.63
..LN1728:
	.loc    1  316  is_stmt 1
        je        ..B2.23       # Prob 50%                      #lbm.c:316.51
..LN1729:
                                # LOE rbx rsi rdi r8 r9 r10 r11 ecx r12d xmm0 xmm1 xmm2 xmm3 xmm5 xmm9 xmm10 xmm11 xmm12 xmm13 xmm14 xmm15
..B2.22:                        # Preds ..B2.21
..LN1730:
	.loc    1  318  is_stmt 1
        xorl      %eax, %eax                                    #lbm.c:318.55
..LN1731:
        jmp       ..B2.24       # Prob 100%                     #lbm.c:318.55
..LN1732:
                                # LOE rbx rsi rdi r8 r9 r10 r11 eax ecx r12d xmm0 xmm1 xmm5 xmm9 xmm10 xmm11 xmm12 xmm13 xmm14 xmm15
..B2.23:                        # Preds ..B2.21
..LN1733:
	.loc    1  316  is_stmt 1
        vmulss    %xmm2, %xmm2, %xmm2                           #lbm.c:316.75
..LN1734:
	.loc    1  318  is_stmt 1
        movl      $1, %eax                                      #lbm.c:318.55
..LN1735:
	.loc    1  316  is_stmt 1
        vmulss    %xmm3, %xmm3, %xmm3                           #lbm.c:316.93
..LN1736:
        vaddss    %xmm3, %xmm2, %xmm4                           #lbm.c:316.93
..LN1737:
        vsqrtss   %xmm4, %xmm4, %xmm4                           #lbm.c:316.60
..LN1738:
        vaddss    312(%rsp), %xmm4, %xmm6                       #lbm.c:316.9
..LN1739:
        vmovss    %xmm6, 312(%rsp)                              #lbm.c:316.9
..LN1740:
                                # LOE rbx rsi rdi r8 r9 r10 r11 eax ecx r12d xmm0 xmm1 xmm5 xmm9 xmm10 xmm11 xmm12 xmm13 xmm14 xmm15
..B2.24:                        # Preds ..B2.22 ..B2.23
..LN1741:
	.loc    1  318  is_stmt 1
        addl      %eax, %r12d                                   #lbm.c:318.9
..LN1742:
	.loc    1  217  is_stmt 1
        incq      %r8                                           #lbm.c:217.5
..LN1743:
	.loc    1  321  is_stmt 1
        movq      1584(%rsp), %rax                              #lbm.c:321.9
..LN1744:
	.loc    1  322  is_stmt 1
        movq      1576(%rsp), %rdx                              #lbm.c:322.9
..LN1745:
	.loc    1  323  is_stmt 1
        movq      1536(%rsp), %r13                              #lbm.c:323.9
..LN1746:
	.loc    1  324  is_stmt 1
        movq      1544(%rsp), %r14                              #lbm.c:324.9
..LN1747:
	.loc    1  320  is_stmt 1
        vmovss    %xmm1, (%r9,%rsi,4)                           #lbm.c:320.9
..LN1748:
	.loc    1  321  is_stmt 1
        vmovss    %xmm13, (%rax,%rsi,4)                         #lbm.c:321.9
..LN1749:
	.loc    1  325  is_stmt 1
        movq      1560(%rsp), %r15                              #lbm.c:325.9
..LN1750:
	.loc    1  326  is_stmt 1
        movq      1552(%rsp), %rax                              #lbm.c:326.9
..LN1751:
	.loc    1  322  is_stmt 1
        vmovss    %xmm0, (%rdx,%rsi,4)                          #lbm.c:322.9
..LN1752:
	.loc    1  328  is_stmt 1
        movq      1592(%rsp), %rdx                              #lbm.c:328.9
..LN1753:
	.loc    1  323  is_stmt 1
        vmovss    %xmm12, (%r13,%rsi,4)                         #lbm.c:323.9
..LN1754:
	.loc    1  324  is_stmt 1
        vmovss    %xmm11, (%r14,%rsi,4)                         #lbm.c:324.9
..LN1755:
	.loc    1  325  is_stmt 1
        vmovss    %xmm5, (%r15,%rsi,4)                          #lbm.c:325.9
..LN1756:
	.loc    1  326  is_stmt 1
        vmovss    %xmm15, (%rax,%rsi,4)                         #lbm.c:326.9
..LN1757:
	.loc    1  327  is_stmt 1
        vmovss    %xmm9, (%r11,%rsi,4)                          #lbm.c:327.9
..LN1758:
	.loc    1  328  is_stmt 1
        vmovss    %xmm10, (%rdx,%rsi,4)                         #lbm.c:328.9
..LN1759:
	.loc    1  217  is_stmt 1
        incq      %rsi                                          #lbm.c:217.5
..LN1760:
        cmpq      1616(%rsp), %rsi                              #lbm.c:217.5
..LN1761:
        jb        ..B2.18       # Prob 82%                      #lbm.c:217.5
..LN1762:
                                # LOE rbx rsi rdi r8 r9 r10 r11 ecx r12d xmm14
..B2.25:                        # Preds ..B2.24
..LN1763:
        movl      %r12d, 96(%rsp)                               #
..LN1764:
        vmovss    312(%rsp), %xmm10                             #
..LN1765:
        movl      56(%rsp), %r12d                               #
..LN1766:
        movl      64(%rsp), %edx                                #
..LN1767:
        movq      1616(%rsp), %r13                              #
..LN1768:
        movl      72(%rsp), %r14d                               #
..LN1769:
        movl      88(%rsp), %ecx                                #
..LN1770:
                                # LOE rbx r9 r10 r11 r13 edx ecx r12d r14d xmm10
..B2.26:                        # Preds ..B2.16 ..B2.25
..LN1771:
	.loc    1  221  is_stmt 1
        vmovd     %edx, %xmm9                                   #lbm.c:221.34
..LN1772:
	.loc    1  222  is_stmt 1
        movl      $8, %edx                                      #lbm.c:222.29
..LN1773:
	.loc    1  224  is_stmt 1
        movl      216(%rsp), %eax                               #lbm.c:224.53
..LN1774:
	.loc    1  222  is_stmt 1
        lea       2(%r14), %r8d                                 #lbm.c:222.29
..LN1775:
	.loc    1  221  is_stmt 1
        vpshufd   $0, %xmm9, %xmm3                              #lbm.c:221.34
..LN1776:
	.loc    1  222  is_stmt 1
        lea       3(%r14), %esi                                 #lbm.c:222.29
..LN1777:
	.loc    1  316  is_stmt 1
        vxorps    %xmm13, %xmm13, %xmm13                        #lbm.c:316.9
..LN1778:
	.loc    1  222  is_stmt 1
        lea       1(%r14), %edi                                 #lbm.c:222.29
..LN1779:
        vmovd     %edx, %xmm14                                  #lbm.c:222.29
..LN1780:
        lea       5(%r14), %edx                                 #lbm.c:222.29
..LN1781:
	.loc    1  230  is_stmt 1
        vmovd     %r12d, %xmm11                                 #lbm.c:230.48
..LN1782:
	.loc    1  316  is_stmt 1
        vmovss    %xmm10, %xmm13, %xmm4                         #lbm.c:316.9
..LN1783:
	.loc    1  222  is_stmt 1
        vmovd     %esi, %xmm10                                  #lbm.c:222.29
..LN1784:
        vmovd     %r8d, %xmm9                                   #lbm.c:222.29
..LN1785:
	.loc    1  269  is_stmt 1
        vmovss    1160(%rsp), %xmm12                            #lbm.c:269.55
..LN1786:
	.loc    1  222  is_stmt 1
        lea       4(%r14), %r12d                                #lbm.c:222.29
..LN1787:
        vmovd     %edx, %xmm6                                   #lbm.c:222.29
..LN1788:
        lea       6(%r14), %esi                                 #lbm.c:222.29
..LN1789:
	.loc    1  318  is_stmt 1
        vmovd     %r14d, %xmm0                                  #lbm.c:318.9
..LN1790:
	.loc    1  222  is_stmt 1
        lea       7(%r14), %r15d                                #lbm.c:222.29
..LN1791:
        vmovd     %edi, %xmm15                                  #lbm.c:222.29
..LN1792:
	.loc    1  224  is_stmt 1
        lea       -1(%rax,%r14), %r8d                           #lbm.c:224.53
..LN1793:
	.loc    1  230  is_stmt 1
        vpshufd   $0, %xmm11, %xmm8                             #lbm.c:230.48
..LN1794:
	.loc    1  224  is_stmt 1
        lea       2(%r8), %edx                                  #lbm.c:224.53
..LN1795:
	.loc    1  269  is_stmt 1
        vshufps   $0, %xmm12, %xmm12, %xmm2                     #lbm.c:269.55
..LN1796:
	.loc    1  222  is_stmt 1
        lea       8(%r14), %edi                                 #lbm.c:222.29
..LN1797:
	.loc    1  230  is_stmt 1
        vmovdqu   %xmm8, 1456(%rsp)                             #lbm.c:230.48
..LN1798:
	.loc    1  222  is_stmt 1
        vmovd     %r12d, %xmm8                                  #lbm.c:222.29
..LN1799:
        vpshufd   $0, %xmm14, %xmm12                            #lbm.c:222.29
..LN1800:
        vmovd     %r15d, %xmm7                                  #lbm.c:222.29
..LN1801:
	.loc    1  318  is_stmt 1
        vpunpcklqdq %xmm15, %xmm0, %xmm5                        #lbm.c:318.9
..LN1802:
	.loc    1  222  is_stmt 1
        vmovd     %esi, %xmm14                                  #lbm.c:222.29
..LN1803:
	.loc    1  318  is_stmt 1
        vpunpcklqdq %xmm10, %xmm9, %xmm11                       #lbm.c:318.9
..LN1804:
	.loc    1  224  is_stmt 1
        lea       1(%r8), %r12d                                 #lbm.c:224.53
..LN1805:
	.loc    1  222  is_stmt 1
        vpunpcklqdq %xmm9, %xmm15, %xmm1                        #lbm.c:222.29
..LN1806:
	.loc    1  224  is_stmt 1
        lea       3(%r14,%rax), %r15d                           #lbm.c:224.53
..LN1807:
	.loc    1  318  is_stmt 1
        vshufps   $136, %xmm11, %xmm5, %xmm9                    #lbm.c:318.9
..LN1808:
	.loc    1  224  is_stmt 1
        lea       2(%r15), %esi                                 #lbm.c:224.53
..LN1809:
	.loc    1  222  is_stmt 1
        vpunpcklqdq %xmm8, %xmm10, %xmm5                        #lbm.c:222.29
..LN1810:
	.loc    1  224  is_stmt 1
        decl      %r14d                                         #lbm.c:224.64
..LN1811:
	.loc    1  318  is_stmt 1
        vpunpcklqdq %xmm6, %xmm8, %xmm15                        #lbm.c:318.9
..LN1812:
	.loc    1  217  is_stmt 1
        addq      %r13, %rbx                                    #lbm.c:217.5
..LN1813:
	.loc    1  222  is_stmt 1
        vpunpcklqdq %xmm14, %xmm6, %xmm10                       #lbm.c:222.29
..LN1814:
        vmovd     %edi, %xmm6                                   #lbm.c:222.29
..LN1815:
	.loc    1  318  is_stmt 1
        vpunpcklqdq %xmm7, %xmm14, %xmm8                        #lbm.c:318.9
..LN1816:
	.loc    1  224  is_stmt 1
        vmovd     %edx, %xmm14                                  #lbm.c:224.53
..LN1817:
        incl      %edx                                          #lbm.c:224.53
..LN1818:
	.loc    1  318  is_stmt 1
        vshufps   $136, %xmm8, %xmm15, %xmm8                    #lbm.c:318.9
..LN1819:
	.loc    1  222  is_stmt 1
        vpunpcklqdq %xmm6, %xmm7, %xmm7                         #lbm.c:222.29
..LN1820:
	.loc    1  224  is_stmt 1
        vmovd     %r12d, %xmm6                                  #lbm.c:224.53
..LN1821:
	.loc    1  222  is_stmt 1
        vshufps   $136, %xmm5, %xmm1, %xmm11                    #lbm.c:222.29
..LN1822:
	.loc    1  224  is_stmt 1
        vmovd     %edx, %xmm15                                  #lbm.c:224.53
..LN1823:
        lea       1(%r15), %edx                                 #lbm.c:224.53
..LN1824:
        vshufps   $136, %xmm10, %xmm5, %xmm5                    #lbm.c:224.64
..LN1825:
	.loc    1  222  is_stmt 1
        vshufps   $136, %xmm7, %xmm10, %xmm10                   #lbm.c:222.29
..LN1826:
	.loc    1  224  is_stmt 1
        vmovd     %r8d, %xmm7                                   #lbm.c:224.53
..LN1827:
        vpunpcklqdq %xmm6, %xmm7, %xmm7                         #lbm.c:224.53
..LN1828:
        vpunpcklqdq %xmm15, %xmm14, %xmm6                       #lbm.c:224.53
..LN1829:
        vmovd     %r15d, %xmm14                                 #lbm.c:224.53
..LN1830:
        vmovd     %edx, %xmm15                                  #lbm.c:224.53
..LN1831:
        vshufps   $136, %xmm6, %xmm7, %xmm7                     #lbm.c:224.53
..LN1832:
        vpunpcklqdq %xmm15, %xmm14, %xmm6                       #lbm.c:224.53
..LN1833:
        vmovd     %esi, %xmm14                                  #lbm.c:224.53
..LN1834:
        incl      %esi                                          #lbm.c:224.53
..LN1835:
	.loc    1  202  is_stmt 1
        movq      1528(%rsp), %rdi                              #lbm.c:202.40
..LN1836:
	.loc    1  205  is_stmt 1
        movq      1480(%rsp), %rdx                              #lbm.c:205.40
..LN1837:
	.loc    1  206  is_stmt 1
        movq      1496(%rsp), %r8                               #lbm.c:206.40
..LN1838:
	.loc    1  224  is_stmt 1
        vmovd     %esi, %xmm15                                  #lbm.c:224.53
..LN1839:
        vpunpcklqdq %xmm15, %xmm14, %xmm14                      #lbm.c:224.53
..LN1840:
        vmovd     %r14d, %xmm15                                 #lbm.c:224.64
..LN1841:
        vpunpcklqdq %xmm0, %xmm15, %xmm0                        #lbm.c:224.64
..LN1842:
        vshufps   $136, %xmm14, %xmm6, %xmm6                    #lbm.c:224.53
..LN1843:
        vshufps   $136, %xmm1, %xmm0, %xmm14                    #lbm.c:224.64
..LN1844:
        vmovd     %eax, %xmm1                                   #lbm.c:224.41
..LN1845:
        vpshufd   $0, %xmm1, %xmm1                              #lbm.c:224.41
..LN1846:
	.loc    1  236  is_stmt 1
        vpmulld   %xmm3, %xmm1, %xmm15                          #lbm.c:236.49
..LN1847:
        vpmulld   %xmm1, %xmm3, %xmm3                           #lbm.c:236.49
..LN1848:
        vmovdqu   %xmm3, 1424(%rsp)                             #lbm.c:236.49
..LN1849:
	.loc    1  304  is_stmt 1
        vmovss    152(%rsp), %xmm3                              #lbm.c:304.75
..LN1850:
	.loc    1  236  is_stmt 1
        vmovdqu   %xmm15, 1440(%rsp)                            #lbm.c:236.49
..LN1851:
	.loc    1  304  is_stmt 1
        vshufps   $0, %xmm3, %xmm3, %xmm15                      #lbm.c:304.75
..LN1852:
	.loc    1  223  is_stmt 1
        movl      192(%rsp), %eax                               #lbm.c:223.64
..LN1853:
	.loc    1  204  is_stmt 1
        movq      1600(%rsp), %rsi                              #lbm.c:204.40
..LN1854:
	.loc    1  223  is_stmt 1
        lea       -1(%rax,%rcx), %eax                           #lbm.c:223.64
..LN1855:
	.loc    1  199  is_stmt 1
        movq      136(%rsp), %r14                               #lbm.c:199.40
..LN1856:
	.loc    1  223  is_stmt 1
        vmovd     %eax, %xmm0                                   #lbm.c:223.64
..LN1857:
        movl      104(%rsp), %eax                               #lbm.c:223.53
..LN1858:
        vpshufd   $0, %xmm0, %xmm0                              #lbm.c:223.64
..LN1859:
	.loc    1  199  is_stmt 1
        movq      %r14, 1848(%rsp)                              #lbm.c:199.40
..LN1860:
	.loc    1  223  is_stmt 1
        lea       -1(%rax,%rcx), %eax                           #lbm.c:223.53
..LN1861:
	.loc    1  200  is_stmt 1
        movq      1504(%rsp), %r14                              #lbm.c:200.40
..LN1862:
	.loc    1  201  is_stmt 1
        movq      128(%rsp), %r15                               #lbm.c:201.40
..LN1863:
	.loc    1  203  is_stmt 1
        movq      1488(%rsp), %r12                              #lbm.c:203.40
..LN1864:
	.loc    1  223  is_stmt 1
        vmovdqu   %xmm0, 1216(%rsp)                             #lbm.c:223.53
..LN1865:
        vmovdqu   %xmm1, 1248(%rsp)                             #lbm.c:223.53
..LN1866:
        vmovups   %xmm5, 1360(%rsp)                             #lbm.c:223.53
..LN1867:
        vmovups   %xmm14, 1344(%rsp)                            #lbm.c:223.53
..LN1868:
        vmovups   %xmm6, 1376(%rsp)                             #lbm.c:223.53
..LN1869:
        vmovups   %xmm7, 1328(%rsp)                             #lbm.c:223.53
..LN1870:
        vmovups   %xmm8, 1392(%rsp)                             #lbm.c:223.53
..LN1871:
        vmovups   %xmm9, 1408(%rsp)                             #lbm.c:223.53
..LN1872:
        vmovups   %xmm10, 1296(%rsp)                            #lbm.c:223.53
..LN1873:
        vmovups   %xmm11, 1312(%rsp)                            #lbm.c:223.53
..LN1874:
        vmovdqu   %xmm12, 1232(%rsp)                            #lbm.c:223.53
..LN1875:
        movq      %r8, 1832(%rsp)                               #lbm.c:223.53
..LN1876:
        movq      %rdx, 1840(%rsp)                              #lbm.c:223.53
..LN1877:
        movq      %rsi, 1824(%rsp)                              #lbm.c:223.53
..LN1878:
        movq      %rdi, 1816(%rsp)                              #lbm.c:223.53
..LN1879:
        movq      %r11, 1800(%rsp)                              #lbm.c:223.53
..LN1880:
        movq      %r9, 1792(%rsp)                               #lbm.c:223.53
..LN1881:
        movq      %r10, 1808(%rsp)                              #lbm.c:223.53
..LN1882:
        movl      %ecx, 88(%rsp)                                #lbm.c:223.53
..LN1883:
	.loc    1  304  is_stmt 1
        vinsertf128 $1, %xmm15, %ymm15, %ymm3                   #lbm.c:304.75
..LN1884:
        vmovups   %ymm3, 640(%rsp)                              #lbm.c:304.75
..LN1885:
	.loc    1  196  is_stmt 1
        vmovss    1120(%rsp), %xmm3                             #lbm.c:196.3
..LN1886:
        vshufps   $0, %xmm3, %xmm3, %xmm15                      #lbm.c:196.3
..LN1887:
        vinsertf128 $1, %xmm15, %ymm15, %ymm3                   #lbm.c:196.3
..LN1888:
        vmovups   %ymm3, 608(%rsp)                              #lbm.c:196.3
..LN1889:
	.loc    1  270  is_stmt 1
        vmovss    1152(%rsp), %xmm3                             #lbm.c:270.74
..LN1890:
        vshufps   $0, %xmm3, %xmm3, %xmm15                      #lbm.c:270.74
..LN1891:
        vinsertf128 $1, %xmm15, %ymm15, %ymm3                   #lbm.c:270.74
..LN1892:
        vmovups   %ymm3, 576(%rsp)                              #lbm.c:270.74
..LN1893:
	.loc    1  267  is_stmt 1
        vmovss    1144(%rsp), %xmm3                             #lbm.c:267.43
..LN1894:
        vshufps   $0, %xmm3, %xmm3, %xmm15                      #lbm.c:267.43
..LN1895:
        vinsertf128 $1, %xmm15, %ymm15, %ymm3                   #lbm.c:267.43
..LN1896:
        vmovups   %ymm3, 544(%rsp)                              #lbm.c:267.43
..LN1897:
	.loc    1  196  is_stmt 1
        vmovss    1136(%rsp), %xmm3                             #lbm.c:196.3
..LN1898:
        vshufps   $0, %xmm3, %xmm3, %xmm15                      #lbm.c:196.3
..LN1899:
        vinsertf128 $1, %xmm15, %ymm15, %ymm3                   #lbm.c:196.3
..LN1900:
        vmovups   %ymm3, 512(%rsp)                              #lbm.c:196.3
..LN1901:
        vmovss    1128(%rsp), %xmm3                             #lbm.c:196.3
..LN1902:
        vshufps   $0, %xmm3, %xmm3, %xmm15                      #lbm.c:196.3
..LN1903:
        vinsertf128 $1, %xmm15, %ymm15, %ymm3                   #lbm.c:196.3
..LN1904:
        vmovups   %ymm3, 480(%rsp)                              #lbm.c:196.3
..LN1905:
	.loc    1  223  is_stmt 1
        vmovd     %eax, %xmm3                                   #lbm.c:223.53
..LN1906:
        vpshufd   $0, %xmm3, %xmm3                              #lbm.c:223.53
..LN1907:
        vmovd     96(%rsp), %xmm15                              #lbm.c:223.53
..LN1908:
        vmovdqu   %xmm3, 1200(%rsp)                             #lbm.c:223.53
..LN1909:
        vmovdqu   %xmm15, 1280(%rsp)                            #lbm.c:223.53
..LN1910:
	.loc    1  316  is_stmt 1
        vinsertf128 $1, %xmm13, %ymm4, %ymm4                    #lbm.c:316.9
..LN1911:
	.loc    1  269  is_stmt 1
        vinsertf128 $1, %xmm2, %ymm2, %ymm2                     #lbm.c:269.55
..LN1912:
	.loc    1  318  is_stmt 1
        vpxor     %xmm13, %xmm13, %xmm13                        #lbm.c:318.9
..LN1913:
        vmovdqu   %xmm13, 1264(%rsp)                            #lbm.c:318.9
..LN1914:
	.loc    1  223  is_stmt 1
        vmovups   %ymm2, 352(%rsp)                              #lbm.c:223.53
..LN1915:
        vmovups   %ymm4, 320(%rsp)                              #lbm.c:223.53
..LN1916:
                                # LOE rbx r12 r13 r14 r15
..B2.27:                        # Preds ..B2.61 ..B2.26
..L122:         # optimization report
                # LOOP WAS VECTORIZED
                # SIMD LOOP
                # VECTORIZATION HAS UNALIGNED MEMORY REFERENCES
                # VECTORIZATION SPEEDUP COEFFECIENT 5.484375
                # VECTOR TRIP COUNT IS ESTIMATED CONSTANT
                # VECTOR LENGTH 8
                # NORMALIZED VECTORIZATION OVERHEAD 0.312500
                # MAIN VECTOR TYPE: 32-bits floating point
..LN1917:
        cmpl      $0, 1568(%rsp)                                #lbm.c:223.30
..LN1918:
        jne       ..B2.29       # Prob 50%                      #lbm.c:223.30
..LN1919:
                                # LOE rbx r12 r13 r14 r15
..B2.28:                        # Preds ..B2.27
..LN1920:
        vmovdqu   1200(%rsp), %xmm9                             #lbm.c:223.53
..LN1921:
        vmovdqa   %xmm9, %xmm13                                 #lbm.c:223.53
..LN1922:
        jmp       ..B2.30       # Prob 100%                     #lbm.c:223.53
..LN1923:
                                # LOE rbx r12 r13 r14 r15 xmm9 xmm13
..B2.29:                        # Preds ..B2.27
..LN1924:
        vmovdqu   1216(%rsp), %xmm9                             #lbm.c:223.64
..LN1925:
        vmovdqa   %xmm9, %xmm13                                 #lbm.c:223.64
..LN1926:
                                # LOE rbx r12 r13 r14 r15 xmm9 xmm13
..B2.30:                        # Preds ..B2.28 ..B2.29
..LN1927:
	.loc    1  224  is_stmt 1
        vmovups   1408(%rsp), %xmm6                             #lbm.c:224.30
..LN1928:
        vpxor     %xmm7, %xmm7, %xmm7                           #lbm.c:224.30
..LN1929:
        vmovups   1344(%rsp), %xmm12                            #lbm.c:224.64
..LN1930:
        vpcmpeqd  %xmm7, %xmm6, %xmm8                           #lbm.c:224.30
..LN1931:
        vpblendvb %xmm8, 1328(%rsp), %xmm12, %xmm12             #lbm.c:224.64
..LN1932:
	.loc    1  230  is_stmt 1
        vmovdqu   1456(%rsp), %xmm4                             #lbm.c:230.48
..LN1933:
        vpaddd    %xmm4, %xmm12, %xmm2                          #lbm.c:230.48
..LN1934:
        vmovd     %xmm2, %rcx                                   #lbm.c:230.24
..LN1935:
        vpunpckhqdq %xmm2, %xmm2, %xmm0                         #lbm.c:230.24
..LN1936:
	.loc    1  224  is_stmt 1
        vmovups   1392(%rsp), %xmm5                             #lbm.c:224.30
..LN1937:
	.loc    1  230  is_stmt 1
        vmovd     %xmm0, %rdi                                   #lbm.c:230.24
..LN1938:
	.loc    1  224  is_stmt 1
        vpcmpeqd  %xmm7, %xmm5, %xmm14                          #lbm.c:224.30
..LN1939:
        vmovups   1360(%rsp), %xmm11                            #lbm.c:224.64
..LN1940:
        vpblendvb %xmm14, 1376(%rsp), %xmm11, %xmm8             #lbm.c:224.64
..LN1941:
	.loc    1  231  is_stmt 1
        vmovdqu   1248(%rsp), %xmm1                             #lbm.c:231.48
..LN1942:
	.loc    1  230  is_stmt 1
        movslq    %ecx, %rdx                                    #lbm.c:230.24
..LN1943:
        sarq      $32, %rcx                                     #lbm.c:230.24
..LN1944:
        movq      1848(%rsp), %r11                              #lbm.c:230.24
..LN1945:
        movslq    %edi, %rsi                                    #lbm.c:230.24
..LN1946:
        sarq      $32, %rdi                                     #lbm.c:230.24
..LN1947:
        vmovd     (%r11,%rdx,4), %xmm2                          #lbm.c:230.24
..LN1948:
        vmovd     (%r11,%rcx,4), %xmm3                          #lbm.c:230.24
..LN1949:
        vpunpcklqdq %xmm3, %xmm2, %xmm7                         #lbm.c:230.24
..LN1950:
        vmovd     (%r11,%rsi,4), %xmm2                          #lbm.c:230.24
..LN1951:
        vmovd     (%r11,%rdi,4), %xmm3                          #lbm.c:230.24
..LN1952:
        vpunpcklqdq %xmm3, %xmm2, %xmm2                         #lbm.c:230.24
..LN1953:
	.loc    1  229  is_stmt 1
        movq      1808(%rsp), %rax                              #lbm.c:229.24
..LN1954:
	.loc    1  230  is_stmt 1
        vshufps   $136, %xmm2, %xmm7, %xmm3                     #lbm.c:230.24
..LN1955:
        vpaddd    %xmm8, %xmm4, %xmm2                           #lbm.c:230.48
..LN1956:
        vmovd     %xmm2, %r9                                    #lbm.c:230.24
..LN1957:
        vpunpckhqdq %xmm2, %xmm2, %xmm4                         #lbm.c:230.24
..LN1958:
	.loc    1  229  is_stmt 1
        vmovups   (%rax,%r13,4), %ymm15                         #lbm.c:229.24
..LN1959:
	.loc    1  230  is_stmt 1
        vmovd     %xmm4, %rax                                   #lbm.c:230.24
..LN1960:
	.loc    1  229  is_stmt 1
        vmovups   %ymm15, 448(%rsp)                             #lbm.c:229.24
..LN1961:
	.loc    1  230  is_stmt 1
        movslq    %r9d, %r8                                     #lbm.c:230.24
..LN1962:
        sarq      $32, %r9                                      #lbm.c:230.24
..LN1963:
        movslq    %eax, %r10                                    #lbm.c:230.24
..LN1964:
        sarq      $32, %rax                                     #lbm.c:230.24
..LN1965:
        vmovd     (%r11,%r8,4), %xmm2                           #lbm.c:230.24
..LN1966:
        vmovd     (%r11,%r9,4), %xmm0                           #lbm.c:230.24
..LN1967:
        vpunpcklqdq %xmm0, %xmm2, %xmm0                         #lbm.c:230.24
..LN1968:
        vmovd     (%r11,%r10,4), %xmm2                          #lbm.c:230.24
..LN1969:
        vmovd     (%r11,%rax,4), %xmm4                          #lbm.c:230.24
..LN1970:
        vpunpcklqdq %xmm4, %xmm2, %xmm2                         #lbm.c:230.24
..LN1971:
        vshufps   $136, %xmm2, %xmm0, %xmm2                     #lbm.c:230.24
..LN1972:
	.loc    1  231  is_stmt 1
        vpmulld   %xmm1, %xmm13, %xmm10                         #lbm.c:231.48
..LN1973:
	.loc    1  230  is_stmt 1
        vinsertf128 $1, %xmm2, %ymm3, %ymm2                     #lbm.c:230.24
..LN1974:
        vmovups   %ymm2, 384(%rsp)                              #lbm.c:230.24
..LN1975:
	.loc    1  231  is_stmt 1
        vpaddd    %xmm10, %xmm6, %xmm2                          #lbm.c:231.48
..LN1976:
        vpunpckhqdq %xmm2, %xmm2, %xmm3                         #lbm.c:231.24
..LN1977:
        vmovd     %xmm2, %rcx                                   #lbm.c:231.24
..LN1978:
        vmovd     %xmm3, %rdi                                   #lbm.c:231.24
..LN1979:
        movslq    %ecx, %rdx                                    #lbm.c:231.24
..LN1980:
        sarq      $32, %rcx                                     #lbm.c:231.24
..LN1981:
        movslq    %edi, %rsi                                    #lbm.c:231.24
..LN1982:
        sarq      $32, %rdi                                     #lbm.c:231.24
..LN1983:
        vmovd     (%r14,%rdx,4), %xmm2                          #lbm.c:231.24
..LN1984:
        vmovd     (%r14,%rcx,4), %xmm0                          #lbm.c:231.24
..LN1985:
        vpunpcklqdq %xmm0, %xmm2, %xmm0                         #lbm.c:231.24
..LN1986:
        vmovd     (%r14,%rsi,4), %xmm2                          #lbm.c:231.24
..LN1987:
        vmovd     (%r14,%rdi,4), %xmm3                          #lbm.c:231.24
..LN1988:
        vpunpcklqdq %xmm3, %xmm2, %xmm2                         #lbm.c:231.24
..LN1989:
        vshufps   $136, %xmm2, %xmm0, %xmm2                     #lbm.c:231.24
..LN1990:
        vpmulld   %xmm9, %xmm1, %xmm0                           #lbm.c:231.48
..LN1991:
        vpaddd    %xmm0, %xmm5, %xmm0                           #lbm.c:231.48
..LN1992:
        vmovd     %xmm0, %r9                                    #lbm.c:231.24
..LN1993:
        vpunpckhqdq %xmm0, %xmm0, %xmm4                         #lbm.c:231.24
..LN1994:
        vmovd     %xmm4, %rax                                   #lbm.c:231.24
..LN1995:
        movslq    %r9d, %r8                                     #lbm.c:231.24
..LN1996:
        sarq      $32, %r9                                      #lbm.c:231.24
..LN1997:
        movslq    %eax, %r10                                    #lbm.c:231.24
..LN1998:
        sarq      $32, %rax                                     #lbm.c:231.24
..LN1999:
        vmovd     (%r14,%r8,4), %xmm0                           #lbm.c:231.24
..LN2000:
        vmovd     (%r14,%r9,4), %xmm3                           #lbm.c:231.24
..LN2001:
        vpunpcklqdq %xmm3, %xmm0, %xmm3                         #lbm.c:231.24
..LN2002:
        vmovd     (%r14,%r10,4), %xmm4                          #lbm.c:231.24
..LN2003:
        vmovd     (%r14,%rax,4), %xmm0                          #lbm.c:231.24
..LN2004:
        vpunpcklqdq %xmm0, %xmm4, %xmm0                         #lbm.c:231.24
..LN2005:
        vshufps   $136, %xmm0, %xmm3, %xmm0                     #lbm.c:231.24
..LN2006:
        vinsertf128 $1, %xmm0, %ymm2, %ymm0                     #lbm.c:231.24
..LN2007:
        vmovups   %ymm0, 416(%rsp)                              #lbm.c:231.24
..LN2008:
	.loc    1  222  is_stmt 1
        vzeroupper                                              #lbm.c:222.34
..LN2009:
        vmovups   1312(%rsp), %xmm0                             #lbm.c:222.34
..LN2010:
	.loc    1  232  is_stmt 1
        call      __svml_irem4                                  #lbm.c:232.24
..LN2011:
                                # LOE rbx r12 r13 r14 r15 xmm0 xmm8 xmm9 xmm10 xmm12
..B2.62:                        # Preds ..B2.30
..LN2012:
	.loc    1  222  is_stmt 1
        vmovdqa   %xmm0, %xmm11                                 #lbm.c:222.34
..LN2013:
	.loc    1  232  is_stmt 1
        vpaddd    1456(%rsp), %xmm11, %xmm2                     #lbm.c:232.48
..LN2014:
        vpunpckhqdq %xmm2, %xmm2, %xmm5                         #lbm.c:232.24
..LN2015:
        vmovd     %xmm2, %rdx                                   #lbm.c:232.24
..LN2016:
        vmovd     %xmm5, %rsi                                   #lbm.c:232.24
..LN2017:
        movslq    %edx, %rax                                    #lbm.c:232.24
..LN2018:
        sarq      $32, %rdx                                     #lbm.c:232.24
..LN2019:
        movslq    %esi, %rcx                                    #lbm.c:232.24
..LN2020:
        sarq      $32, %rsi                                     #lbm.c:232.24
..LN2021:
        vmovd     (%r15,%rax,4), %xmm3                          #lbm.c:232.24
..LN2022:
        vmovd     (%r15,%rdx,4), %xmm4                          #lbm.c:232.24
..LN2023:
        vmovd     (%r15,%rcx,4), %xmm6                          #lbm.c:232.24
..LN2024:
        vmovd     (%r15,%rsi,4), %xmm7                          #lbm.c:232.24
..LN2025:
        vpunpcklqdq %xmm4, %xmm3, %xmm14                        #lbm.c:232.24
..LN2026:
        vpunpcklqdq %xmm7, %xmm6, %xmm15                        #lbm.c:232.24
..LN2027:
        vshufps   $136, %xmm15, %xmm14, %xmm15                  #lbm.c:232.24
..LN2028:
	.loc    1  222  is_stmt 1
        vmovups   1296(%rsp), %xmm0                             #lbm.c:222.34
..LN2029:
        vmovdqu   1248(%rsp), %xmm1                             #lbm.c:222.34
..LN2030:
	.loc    1  232  is_stmt 1
        call      __svml_irem4                                  #lbm.c:232.24
..LN2031:
                                # LOE rbx r12 r13 r14 r15 xmm0 xmm8 xmm9 xmm10 xmm11 xmm12 xmm15
..B2.61:                        # Preds ..B2.62
..LN2032:
	.loc    1  222  is_stmt 1
        vmovdqu   1232(%rsp), %xmm7                             #lbm.c:222.29
..LN2033:
        vmovdqa   %xmm0, %xmm3                                  #lbm.c:222.34
..LN2034:
        vpaddd    1296(%rsp), %xmm7, %xmm0                      #lbm.c:222.29
..LN2035:
        vmovups   %xmm0, 1296(%rsp)                             #lbm.c:222.29
..LN2036:
	.loc    1  318  is_stmt 1
        vpaddd    1392(%rsp), %xmm7, %xmm13                     #lbm.c:318.9
..LN2037:
	.loc    1  232  is_stmt 1
        vpaddd    1456(%rsp), %xmm3, %xmm0                      #lbm.c:232.48
..LN2038:
	.loc    1  318  is_stmt 1
        vmovups   %xmm13, 1392(%rsp)                            #lbm.c:318.9
..LN2039:
	.loc    1  232  is_stmt 1
        vpunpckhqdq %xmm0, %xmm0, %xmm13                        #lbm.c:232.24
..LN2040:
        vmovd     %xmm0, %rdx                                   #lbm.c:232.24
..LN2041:
        vmovd     %xmm13, %rsi                                  #lbm.c:232.24
..LN2042:
	.loc    1  222  is_stmt 1
        vpaddd    1312(%rsp), %xmm7, %xmm1                      #lbm.c:222.29
..LN2043:
        vmovups   %xmm1, 1312(%rsp)                             #lbm.c:222.29
..LN2044:
	.loc    1  232  is_stmt 1
        movslq    %edx, %rax                                    #lbm.c:232.24
..LN2045:
        sarq      $32, %rdx                                     #lbm.c:232.24
..LN2046:
        movslq    %esi, %rcx                                    #lbm.c:232.24
..LN2047:
        sarq      $32, %rsi                                     #lbm.c:232.24
..LN2048:
	.loc    1  234  is_stmt 1
        vpmulld   1248(%rsp), %xmm9, %xmm4                      #lbm.c:234.49
..LN2049:
	.loc    1  318  is_stmt 1
        vpaddd    1408(%rsp), %xmm7, %xmm2                      #lbm.c:318.9
..LN2050:
	.loc    1  224  is_stmt 1
        vpaddd    1328(%rsp), %xmm7, %xmm1                      #lbm.c:224.53
..LN2051:
        vpaddd    1376(%rsp), %xmm7, %xmm9                      #lbm.c:224.53
..LN2052:
	.loc    1  318  is_stmt 1
        vmovups   %xmm2, 1408(%rsp)                             #lbm.c:318.9
..LN2053:
	.loc    1  224  is_stmt 1
        vmovups   %xmm1, 1328(%rsp)                             #lbm.c:224.53
..LN2054:
        vmovups   %xmm9, 1376(%rsp)                             #lbm.c:224.53
..LN2055:
        vpaddd    1344(%rsp), %xmm7, %xmm6                      #lbm.c:224.64
..LN2056:
	.loc    1  232  is_stmt 1
        vmovd     (%r15,%rax,4), %xmm14                         #lbm.c:232.24
..LN2057:
        vmovd     (%r15,%rdx,4), %xmm2                          #lbm.c:232.24
..LN2058:
        vmovd     (%r15,%rcx,4), %xmm1                          #lbm.c:232.24
..LN2059:
        vmovd     (%r15,%rsi,4), %xmm9                          #lbm.c:232.24
..LN2060:
	.loc    1  233  is_stmt 1
        movq      1816(%rsp), %rdi                              #lbm.c:233.24
..LN2061:
	.loc    1  224  is_stmt 1
        vpaddd    1360(%rsp), %xmm7, %xmm5                      #lbm.c:224.64
..LN2062:
        vmovups   %xmm6, 1344(%rsp)                             #lbm.c:224.64
..LN2063:
	.loc    1  232  is_stmt 1
        vpunpcklqdq %xmm2, %xmm14, %xmm6                        #lbm.c:232.24
..LN2064:
	.loc    1  234  is_stmt 1
        vpaddd    %xmm10, %xmm12, %xmm2                         #lbm.c:234.49
..LN2065:
	.loc    1  232  is_stmt 1
        vpunpcklqdq %xmm9, %xmm1, %xmm7                         #lbm.c:232.24
..LN2066:
	.loc    1  235  is_stmt 1
        vpaddd    %xmm11, %xmm10, %xmm14                        #lbm.c:235.49
..LN2067:
	.loc    1  224  is_stmt 1
        vmovups   %xmm5, 1360(%rsp)                             #lbm.c:224.64
..LN2068:
	.loc    1  232  is_stmt 1
        vshufps   $136, %xmm7, %xmm6, %xmm5                     #lbm.c:232.24
..LN2069:
	.loc    1  234  is_stmt 1
        vmovd     %xmm2, %r9                                    #lbm.c:234.24
..LN2070:
        movslq    %r9d, %r8                                     #lbm.c:234.24
..LN2071:
        sarq      $32, %r9                                      #lbm.c:234.24
..LN2072:
	.loc    1  232  is_stmt 1
        vinsertf128 $1, %xmm5, %ymm15, %ymm0                    #lbm.c:232.24
..LN2073:
	.loc    1  233  is_stmt 1
        vmovups   (%rdi,%rbx,4), %xmm15                         #lbm.c:233.24
..LN2074:
	.loc    1  236  is_stmt 1
        vmovdqu   1424(%rsp), %xmm5                             #lbm.c:236.49
..LN2075:
	.loc    1  237  is_stmt 1
        vpaddd    %xmm5, %xmm12, %xmm10                         #lbm.c:237.49
..LN2076:
	.loc    1  236  is_stmt 1
        vpaddd    %xmm5, %xmm11, %xmm11                         #lbm.c:236.49
..LN2077:
	.loc    1  234  is_stmt 1
        vmovd     (%r12,%r8,4), %xmm12                          #lbm.c:234.24
..LN2078:
	.loc    1  235  is_stmt 1
        vmovd     %xmm14, %r8                                   #lbm.c:235.24
..LN2079:
	.loc    1  233  is_stmt 1
        vinsertf128 $1, 16(%rdi,%rbx,4), %ymm15, %ymm1          #lbm.c:233.24
..LN2080:
	.loc    1  217  is_stmt 1
        addq      $8, %rbx                                      #lbm.c:217.5
..LN2081:
	.loc    1  234  is_stmt 1
        vpunpckhqdq %xmm2, %xmm2, %xmm15                        #lbm.c:234.24
..LN2082:
        vmovd     %xmm15, %r11                                  #lbm.c:234.24
..LN2083:
        vmovd     (%r12,%r9,4), %xmm2                           #lbm.c:234.24
..LN2084:
        vpunpcklqdq %xmm2, %xmm12, %xmm6                        #lbm.c:234.24
..LN2085:
        vpaddd    %xmm4, %xmm8, %xmm12                          #lbm.c:234.49
..LN2086:
        movslq    %r11d, %r10                                   #lbm.c:234.24
..LN2087:
        vmovd     %xmm12, %rdx                                  #lbm.c:234.24
..LN2088:
        vpunpckhqdq %xmm12, %xmm12, %xmm2                       #lbm.c:234.24
..LN2089:
        vmovd     %xmm2, %rsi                                   #lbm.c:234.24
..LN2090:
	.loc    1  235  is_stmt 1
        vpunpckhqdq %xmm14, %xmm14, %xmm2                       #lbm.c:235.24
..LN2091:
	.loc    1  234  is_stmt 1
        vmovd     (%r12,%r10,4), %xmm13                         #lbm.c:234.24
..LN2092:
        sarq      $32, %r11                                     #lbm.c:234.24
..LN2093:
        movslq    %edx, %rax                                    #lbm.c:234.24
..LN2094:
	.loc    1  235  is_stmt 1
        vmovd     %xmm2, %r10                                   #lbm.c:235.24
..LN2095:
	.loc    1  234  is_stmt 1
        vmovd     (%r12,%r11,4), %xmm9                          #lbm.c:234.24
..LN2096:
        sarq      $32, %rdx                                     #lbm.c:234.24
..LN2097:
        movslq    %esi, %rcx                                    #lbm.c:234.24
..LN2098:
        sarq      $32, %rsi                                     #lbm.c:234.24
..LN2099:
	.loc    1  235  is_stmt 1
        movslq    %r10d, %r9                                    #lbm.c:235.24
..LN2100:
        sarq      $32, %r10                                     #lbm.c:235.24
..LN2101:
	.loc    1  234  is_stmt 1
        vpunpcklqdq %xmm9, %xmm13, %xmm7                        #lbm.c:234.24
..LN2102:
	.loc    1  237  is_stmt 1
        vpaddd    %xmm5, %xmm8, %xmm13                          #lbm.c:237.49
..LN2103:
	.loc    1  234  is_stmt 1
        vmovd     (%r12,%rax,4), %xmm8                          #lbm.c:234.24
..LN2104:
	.loc    1  235  is_stmt 1
        movq      1824(%rsp), %rax                              #lbm.c:235.24
..LN2105:
        movslq    %r8d, %rdi                                    #lbm.c:235.24
..LN2106:
	.loc    1  234  is_stmt 1
        vshufps   $136, %xmm7, %xmm6, %xmm9                     #lbm.c:234.24
..LN2107:
	.loc    1  235  is_stmt 1
        vpaddd    %xmm3, %xmm4, %xmm6                           #lbm.c:235.49
..LN2108:
	.loc    1  236  is_stmt 1
        vpaddd    1440(%rsp), %xmm3, %xmm7                      #lbm.c:236.49
..LN2109:
	.loc    1  234  is_stmt 1
        vmovd     (%r12,%rdx,4), %xmm3                          #lbm.c:234.24
..LN2110:
        vpunpcklqdq %xmm3, %xmm8, %xmm5                         #lbm.c:234.24
..LN2111:
        vmovd     (%r12,%rcx,4), %xmm15                         #lbm.c:234.24
..LN2112:
        vmovd     (%r12,%rsi,4), %xmm8                          #lbm.c:234.24
..LN2113:
        vpunpcklqdq %xmm8, %xmm15, %xmm12                       #lbm.c:234.24
..LN2114:
	.loc    1  235  is_stmt 1
        vmovd     (%rax,%r9,4), %xmm15                          #lbm.c:235.24
..LN2115:
        vmovd     (%rax,%r10,4), %xmm8                          #lbm.c:235.24
..LN2116:
	.loc    1  234  is_stmt 1
        vshufps   $136, %xmm12, %xmm5, %xmm4                    #lbm.c:234.24
..LN2117:
	.loc    1  235  is_stmt 1
        vmovd     (%rax,%rdi,4), %xmm14                         #lbm.c:235.24
..LN2118:
        vpunpcklqdq %xmm8, %xmm15, %xmm12                       #lbm.c:235.24
..LN2119:
        vmovd     %xmm6, %rdi                                   #lbm.c:235.24
..LN2120:
        vpunpckhqdq %xmm6, %xmm6, %xmm15                        #lbm.c:235.24
..LN2121:
        vmovd     %xmm15, %rdx                                  #lbm.c:235.24
..LN2122:
	.loc    1  236  is_stmt 1
        vmovd     %xmm11, %rsi                                  #lbm.c:236.24
..LN2123:
	.loc    1  235  is_stmt 1
        sarq      $32, %r8                                      #lbm.c:235.24
..LN2124:
        movslq    %edi, %r11                                    #lbm.c:235.24
..LN2125:
        sarq      $32, %rdi                                     #lbm.c:235.24
..LN2126:
	.loc    1  236  is_stmt 1
        movslq    %esi, %rcx                                    #lbm.c:236.24
..LN2127:
	.loc    1  235  is_stmt 1
        vmovd     (%rax,%r8,4), %xmm3                           #lbm.c:235.24
..LN2128:
        movslq    %edx, %r8                                     #lbm.c:235.24
..LN2129:
        sarq      $32, %rdx                                     #lbm.c:235.24
..LN2130:
        vpunpcklqdq %xmm3, %xmm14, %xmm5                        #lbm.c:235.24
..LN2131:
        vmovd     (%rax,%r11,4), %xmm6                          #lbm.c:235.24
..LN2132:
        vmovd     (%rax,%rdi,4), %xmm3                          #lbm.c:235.24
..LN2133:
	.loc    1  236  is_stmt 1
        sarq      $32, %rsi                                     #lbm.c:236.24
..LN2134:
	.loc    1  235  is_stmt 1
        vshufps   $136, %xmm12, %xmm5, %xmm2                    #lbm.c:235.24
..LN2135:
        vpunpcklqdq %xmm3, %xmm6, %xmm5                         #lbm.c:235.24
..LN2136:
        vmovd     (%rax,%r8,4), %xmm8                           #lbm.c:235.24
..LN2137:
        vmovd     (%rax,%rdx,4), %xmm6                          #lbm.c:235.24
..LN2138:
	.loc    1  236  is_stmt 1
        movq      1840(%rsp), %rax                              #lbm.c:236.24
..LN2139:
	.loc    1  235  is_stmt 1
        vpunpcklqdq %xmm6, %xmm8, %xmm12                        #lbm.c:235.24
..LN2140:
        vshufps   $136, %xmm12, %xmm5, %xmm14                   #lbm.c:235.24
..LN2141:
	.loc    1  236  is_stmt 1
        vmovd     (%rax,%rsi,4), %xmm3                          #lbm.c:236.24
..LN2142:
        vmovd     %xmm7, %rsi                                   #lbm.c:236.24
..LN2143:
	.loc    1  237  is_stmt 1
        vmovd     %xmm10, %rdi                                  #lbm.c:237.24
..LN2144:
	.loc    1  236  is_stmt 1
        movslq    %esi, %r10                                    #lbm.c:236.24
..LN2145:
        sarq      $32, %rsi                                     #lbm.c:236.24
..LN2146:
	.loc    1  235  is_stmt 1
        vinsertf128 $1, %xmm14, %ymm2, %ymm15                   #lbm.c:235.24
..LN2147:
	.loc    1  236  is_stmt 1
        vpunpckhqdq %xmm11, %xmm11, %xmm2                       #lbm.c:236.24
..LN2148:
        vmovd     (%rax,%rcx,4), %xmm11                         #lbm.c:236.24
..LN2149:
        vpunpcklqdq %xmm3, %xmm11, %xmm6                        #lbm.c:236.24
..LN2150:
        vpunpckhqdq %xmm7, %xmm7, %xmm3                         #lbm.c:236.24
..LN2151:
        vmovd     %xmm2, %rcx                                   #lbm.c:236.24
..LN2152:
        vmovd     %xmm3, %rdx                                   #lbm.c:236.24
..LN2153:
        vmovd     (%rax,%r10,4), %xmm7                          #lbm.c:236.24
..LN2154:
	.loc    1  237  is_stmt 1
        vpunpckhqdq %xmm13, %xmm13, %xmm14                      #lbm.c:237.24
..LN2155:
	.loc    1  236  is_stmt 1
        movslq    %ecx, %r9                                     #lbm.c:236.24
..LN2156:
        sarq      $32, %rcx                                     #lbm.c:236.24
..LN2157:
        movslq    %edx, %r11                                    #lbm.c:236.24
..LN2158:
        sarq      $32, %rdx                                     #lbm.c:236.24
..LN2159:
        vmovd     (%rax,%r9,4), %xmm11                          #lbm.c:236.24
..LN2160:
        vmovd     (%rax,%rcx,4), %xmm8                          #lbm.c:236.24
..LN2161:
	.loc    1  237  is_stmt 1
        movslq    %edi, %rcx                                    #lbm.c:237.24
..LN2162:
	.loc    1  236  is_stmt 1
        vmovd     (%rax,%r11,4), %xmm2                          #lbm.c:236.24
..LN2163:
	.loc    1  237  is_stmt 1
        movq      1832(%rsp), %r11                              #lbm.c:237.24
..LN2164:
	.loc    1  236  is_stmt 1
        vpunpcklqdq %xmm8, %xmm11, %xmm5                        #lbm.c:236.24
..LN2165:
        vmovd     (%rax,%rsi,4), %xmm11                         #lbm.c:236.24
..LN2166:
        vmovd     (%rax,%rdx,4), %xmm8                          #lbm.c:236.24
..LN2167:
        vshufps   $136, %xmm5, %xmm6, %xmm12                    #lbm.c:236.24
..LN2168:
        vpunpcklqdq %xmm11, %xmm7, %xmm6                        #lbm.c:236.24
..LN2169:
        vpunpcklqdq %xmm8, %xmm2, %xmm7                         #lbm.c:236.24
..LN2170:
	.loc    1  237  is_stmt 1
        vpunpckhqdq %xmm10, %xmm10, %xmm2                       #lbm.c:237.24
..LN2171:
        vmovd     %xmm2, %r8                                    #lbm.c:237.24
..LN2172:
        vmovd     (%r11,%rcx,4), %xmm10                         #lbm.c:237.24
..LN2173:
	.loc    1  236  is_stmt 1
        vshufps   $136, %xmm7, %xmm6, %xmm5                     #lbm.c:236.24
..LN2174:
	.loc    1  237  is_stmt 1
        vmovd     %xmm13, %rcx                                  #lbm.c:237.24
..LN2175:
        vmovd     %xmm14, %rax                                  #lbm.c:237.24
..LN2176:
	.loc    1  235  is_stmt 1
        vmovups   %ymm15, 704(%rsp)                             #lbm.c:235.24
..LN2177:
	.loc    1  237  is_stmt 1
        sarq      $32, %rdi                                     #lbm.c:237.24
..LN2178:
        movslq    %r8d, %rsi                                    #lbm.c:237.24
..LN2179:
        sarq      $32, %r8                                      #lbm.c:237.24
..LN2180:
        movslq    %ecx, %r9                                     #lbm.c:237.24
..LN2181:
        sarq      $32, %rcx                                     #lbm.c:237.24
..LN2182:
        movslq    %eax, %r10                                    #lbm.c:237.24
..LN2183:
        sarq      $32, %rax                                     #lbm.c:237.24
..LN2184:
        vmovd     (%r11,%rdi,4), %xmm11                         #lbm.c:237.24
..LN2185:
        vpunpcklqdq %xmm11, %xmm10, %xmm6                       #lbm.c:237.24
..LN2186:
        vmovd     (%r11,%rsi,4), %xmm10                         #lbm.c:237.24
..LN2187:
        vmovd     (%r11,%r8,4), %xmm8                           #lbm.c:237.24
..LN2188:
        vmovd     (%r11,%r9,4), %xmm13                          #lbm.c:237.24
..LN2189:
        vmovd     (%r11,%rax,4), %xmm11                         #lbm.c:237.24
..LN2190:
        vpunpcklqdq %xmm8, %xmm10, %xmm7                        #lbm.c:237.24
..LN2191:
	.loc    1  296  is_stmt 1
        movq      1608(%rsp), %rdx                              #lbm.c:296.59
..LN2192:
	.loc    1  321  is_stmt 1
        movq      1584(%rsp), %rsi                              #lbm.c:321.9
..LN2193:
	.loc    1  322  is_stmt 1
        movq      1576(%rsp), %rdi                              #lbm.c:322.9
..LN2194:
	.loc    1  323  is_stmt 1
        movq      1536(%rsp), %r8                               #lbm.c:323.9
..LN2195:
	.loc    1  324  is_stmt 1
        movq      1544(%rsp), %r9                               #lbm.c:324.9
..LN2196:
	.loc    1  327  is_stmt 1
        movq      1800(%rsp), %rax                              #lbm.c:327.9
..LN2197:
	.loc    1  234  is_stmt 1
        vinsertf128 $1, %xmm4, %ymm9, %ymm9                     #lbm.c:234.24
..LN2198:
	.loc    1  236  is_stmt 1
        vinsertf128 $1, %xmm5, %ymm12, %ymm3                    #lbm.c:236.24
..LN2199:
	.loc    1  237  is_stmt 1
        vmovd     (%r11,%rcx,4), %xmm12                         #lbm.c:237.24
..LN2200:
        vmovd     (%r11,%r10,4), %xmm4                          #lbm.c:237.24
..LN2201:
        vpunpcklqdq %xmm12, %xmm13, %xmm2                       #lbm.c:237.24
..LN2202:
        vpunpcklqdq %xmm11, %xmm4, %xmm13                       #lbm.c:237.24
..LN2203:
        vshufps   $136, %xmm7, %xmm6, %xmm5                     #lbm.c:237.24
..LN2204:
        vshufps   $136, %xmm13, %xmm2, %xmm10                   #lbm.c:237.24
..LN2205:
	.loc    1  241  is_stmt 1
        vmovups   448(%rsp), %ymm7                              #lbm.c:241.40
..LN2206:
        vmovups   416(%rsp), %ymm2                              #lbm.c:241.45
..LN2207:
	.loc    1  234  is_stmt 1
        vmovups   %ymm9, 672(%rsp)                              #lbm.c:234.24
..LN2208:
	.loc    1  236  is_stmt 1
        vmovups   %ymm3, 736(%rsp)                              #lbm.c:236.24
..LN2209:
	.loc    1  320  is_stmt 1
        movq      1792(%rsp), %rcx                              #lbm.c:320.9
..LN2210:
	.loc    1  325  is_stmt 1
        movq      1560(%rsp), %r10                              #lbm.c:325.9
..LN2211:
	.loc    1  326  is_stmt 1
        movq      1552(%rsp), %r11                              #lbm.c:326.9
..LN2212:
	.loc    1  237  is_stmt 1
        vinsertf128 $1, %xmm10, %ymm5, %ymm11                   #lbm.c:237.24
..LN2213:
	.loc    1  241  is_stmt 1
        vmovups   384(%rsp), %ymm5                              #lbm.c:241.40
..LN2214:
	.loc    1  237  is_stmt 1
        vmovups   %ymm11, 768(%rsp)                             #lbm.c:237.24
..LN2215:
	.loc    1  241  is_stmt 1
        vaddps    %ymm5, %ymm7, %ymm8                           #lbm.c:241.40
..LN2216:
        vaddps    %ymm8, %ymm2, %ymm6                           #lbm.c:241.45
..LN2217:
	.loc    1  244  is_stmt 1
        vaddps    %ymm9, %ymm5, %ymm8                           #lbm.c:244.31
..LN2218:
	.loc    1  241  is_stmt 1
        vaddps    %ymm6, %ymm0, %ymm12                          #lbm.c:241.50
..LN2219:
	.loc    1  244  is_stmt 1
        vaddps    %ymm15, %ymm0, %ymm6                          #lbm.c:244.47
..LN2220:
	.loc    1  241  is_stmt 1
        vaddps    %ymm12, %ymm1, %ymm14                         #lbm.c:241.55
..LN2221:
	.loc    1  244  is_stmt 1
        vaddps    %ymm8, %ymm11, %ymm12                         #lbm.c:244.36
..LN2222:
	.loc    1  241  is_stmt 1
        vaddps    %ymm14, %ymm9, %ymm4                          #lbm.c:241.60
..LN2223:
	.loc    1  244  is_stmt 1
        vaddps    %ymm6, %ymm3, %ymm14                          #lbm.c:244.52
..LN2224:
	.loc    1  247  is_stmt 1
        vaddps    %ymm9, %ymm2, %ymm9                           #lbm.c:247.31
..LN2225:
	.loc    1  241  is_stmt 1
        vaddps    %ymm4, %ymm15, %ymm13                         #lbm.c:241.65
..LN2226:
	.loc    1  244  is_stmt 1
        vsubps    %ymm14, %ymm12, %ymm12                        #lbm.c:244.52
..LN2227:
	.loc    1  247  is_stmt 1
        vaddps    %ymm9, %ymm15, %ymm15                         #lbm.c:247.36
..LN2228:
	.loc    1  241  is_stmt 1
        vaddps    %ymm13, %ymm3, %ymm10                         #lbm.c:241.70
..LN2229:
	.loc    1  247  is_stmt 1
        vaddps    %ymm3, %ymm1, %ymm3                           #lbm.c:247.47
..LN2230:
	.loc    1  241  is_stmt 1
        vaddps    %ymm10, %ymm11, %ymm13                        #lbm.c:241.75
..LN2231:
	.loc    1  247  is_stmt 1
        vaddps    %ymm3, %ymm11, %ymm11                         #lbm.c:247.52
..LN2232:
	.loc    1  244  is_stmt 1
        vrcpps    %ymm13, %ymm10                                #lbm.c:244.59
..LN2233:
	.loc    1  247  is_stmt 1
        vsubps    %ymm11, %ymm15, %ymm3                         #lbm.c:247.52
..LN2234:
	.loc    1  244  is_stmt 1
        vmulps    %ymm13, %ymm10, %ymm4                         #lbm.c:244.59
..LN2235:
        vaddps    %ymm10, %ymm10, %ymm8                         #lbm.c:244.59
..LN2236:
        vmulps    %ymm10, %ymm4, %ymm6                          #lbm.c:244.59
..LN2237:
        vsubps    %ymm6, %ymm8, %ymm6                           #lbm.c:244.59
..LN2238:
        vmulps    %ymm6, %ymm12, %ymm12                         #lbm.c:244.59
..LN2239:
	.loc    1  247  is_stmt 1
        vmulps    %ymm6, %ymm3, %ymm14                          #lbm.c:247.59
..LN2240:
	.loc    1  250  is_stmt 1
        vmulps    %ymm12, %ymm12, %ymm15                        #lbm.c:250.32
..LN2241:
        vmulps    %ymm14, %ymm14, %ymm10                        #lbm.c:250.44
..LN2242:
	.loc    1  258  is_stmt 1
        vaddps    %ymm14, %ymm12, %ymm4                         #lbm.c:258.22
..LN2243:
	.loc    1  259  is_stmt 1
        vsubps    %ymm12, %ymm14, %ymm3                         #lbm.c:259.22
..LN2244:
	.loc    1  250  is_stmt 1
        vaddps    %ymm10, %ymm15, %ymm9                         #lbm.c:250.44
..LN2245:
	.loc    1  258  is_stmt 1
        vmovups   %ymm4, 864(%rsp)                              #lbm.c:258.22
..LN2246:
	.loc    1  259  is_stmt 1
        vmovups   %ymm3, 896(%rsp)                              #lbm.c:259.22
..LN2247:
	.loc    1  260  is_stmt 1
        vxorps    .L_2il0floatpacket.23(%rip), %ymm4, %ymm11    #lbm.c:260.22
..LN2248:
        vmovups   %ymm11, 928(%rsp)                             #lbm.c:260.22
..LN2249:
	.loc    1  267  is_stmt 1
        vmovups   544(%rsp), %ymm11                             #lbm.c:267.43
..LN2250:
	.loc    1  257  is_stmt 1
        vxorps    .L_2il0floatpacket.23(%rip), %ymm14, %ymm6    #lbm.c:257.22
..LN2251:
        vmovups   %ymm6, 832(%rsp)                              #lbm.c:257.22
..LN2252:
	.loc    1  267  is_stmt 1
        vmulps    %ymm9, %ymm11, %ymm10                         #lbm.c:267.43
..LN2253:
        vmovups   .L_2il0floatpacket.20(%rip), %ymm6            #lbm.c:267.43
..LN2254:
	.loc    1  271  is_stmt 1
        vmulps    %ymm11, %ymm9, %ymm9                          #lbm.c:271.58
..LN2255:
	.loc    1  296  is_stmt 1
        vpxor     %xmm11, %xmm11, %xmm11                        #lbm.c:296.59
..LN2256:
	.loc    1  267  is_stmt 1
        vsubps    %ymm10, %ymm6, %ymm4                          #lbm.c:267.43
..LN2257:
	.loc    1  296  is_stmt 1
        vmovups   640(%rsp), %ymm10                             #lbm.c:296.102
..LN2258:
	.loc    1  256  is_stmt 1
        vxorps    .L_2il0floatpacket.23(%rip), %ymm12, %ymm8    #lbm.c:256.16
..LN2259:
        vmovups   %ymm8, 800(%rsp)                              #lbm.c:256.16
..LN2260:
	.loc    1  266  is_stmt 1
        vmulps    608(%rsp), %ymm13, %ymm8                      #lbm.c:266.25
..LN2261:
	.loc    1  261  is_stmt 1
        vxorps    .L_2il0floatpacket.23(%rip), %ymm3, %ymm15    #lbm.c:261.22
..LN2262:
	.loc    1  267  is_stmt 1
        vmulps    %ymm4, %ymm8, %ymm3                           #lbm.c:267.43
..LN2263:
	.loc    1  261  is_stmt 1
        vmovups   %ymm15, 960(%rsp)                             #lbm.c:261.22
..LN2264:
	.loc    1  296  is_stmt 1
        vpcmpeqd  (%rdx,%r13,4), %xmm11, %xmm4                  #lbm.c:296.59
..LN2265:
        vsubps    %ymm7, %ymm3, %ymm15                          #lbm.c:296.102
..LN2266:
        vpcmpeqd  16(%rdx,%r13,4), %xmm11, %xmm3                #lbm.c:296.59
..LN2267:
        vmulps    %ymm15, %ymm10, %ymm8                         #lbm.c:296.102
..LN2268:
        vaddps    %ymm8, %ymm7, %ymm8                           #lbm.c:296.102
..LN2269:
	.loc    1  328  is_stmt 1
        movq      1592(%rsp), %rdx                              #lbm.c:328.9
..LN2270:
	.loc    1  296  is_stmt 1
        vinsertf128 $1, %xmm3, %ymm4, %ymm11                    #lbm.c:296.59
..LN2271:
        vxorps    .L_2il0floatpacket.21(%rip), %ymm11, %ymm11   #lbm.c:296.59
..LN2272:
        vblendvps %ymm11, %ymm7, %ymm8, %ymm15                  #lbm.c:296.102
..LN2273:
	.loc    1  318  is_stmt 1
        vpcmpeqd  %xmm7, %xmm7, %xmm7                           #lbm.c:318.55
..LN2274:
        vmovdqu   .L_2il0floatpacket.22(%rip), %xmm8            #lbm.c:318.64
..LN2275:
        vpxor     %xmm4, %xmm7, %xmm4                           #lbm.c:318.55
..LN2276:
        vpxor     %xmm3, %xmm7, %xmm7                           #lbm.c:318.55
..LN2277:
        vpandn    %xmm8, %xmm4, %xmm4                           #lbm.c:318.64
..LN2278:
        vpandn    %xmm8, %xmm7, %xmm3                           #lbm.c:318.64
..LN2279:
        vpaddd    1264(%rsp), %xmm3, %xmm8                      #lbm.c:318.9
..LN2280:
	.loc    1  269  is_stmt 1
        vmulps    512(%rsp), %ymm13, %ymm3                      #lbm.c:269.25
..LN2281:
	.loc    1  282  is_stmt 1
        vmulps    480(%rsp), %ymm13, %ymm13                     #lbm.c:282.25
..LN2282:
	.loc    1  269  is_stmt 1
        vmovups   352(%rsp), %ymm7                              #lbm.c:269.55
..LN2283:
	.loc    1  318  is_stmt 1
        vmovdqu   %xmm8, 1264(%rsp)                             #lbm.c:318.9
..LN2284:
        vpaddd    1280(%rsp), %xmm4, %xmm4                      #lbm.c:318.9
..LN2285:
        vmovdqu   %xmm4, 1280(%rsp)                             #lbm.c:318.9
..LN2286:
	.loc    1  282  is_stmt 1
        vmovups   %ymm13, 992(%rsp)                             #lbm.c:282.25
..LN2287:
	.loc    1  269  is_stmt 1
        vmulps    %ymm7, %ymm12, %ymm13                         #lbm.c:269.55
..LN2288:
	.loc    1  270  is_stmt 1
        vmovups   576(%rsp), %ymm8                              #lbm.c:270.52
..LN2289:
	.loc    1  320  is_stmt 1
        vmovups   %ymm15, (%rcx,%r13,4)                         #lbm.c:320.9
..LN2290:
	.loc    1  269  is_stmt 1
        vaddps    %ymm13, %ymm6, %ymm4                          #lbm.c:269.55
..LN2291:
	.loc    1  270  is_stmt 1
        vmulps    %ymm8, %ymm12, %ymm13                         #lbm.c:270.52
..LN2292:
        vmulps    %ymm13, %ymm12, %ymm12                        #lbm.c:270.74
..LN2293:
        vaddps    %ymm12, %ymm4, %ymm4                          #lbm.c:270.74
..LN2294:
	.loc    1  271  is_stmt 1
        vsubps    %ymm9, %ymm4, %ymm13                          #lbm.c:271.58
..LN2295:
        vmulps    %ymm13, %ymm3, %ymm12                         #lbm.c:271.58
..LN2296:
	.loc    1  297  is_stmt 1
        vsubps    %ymm5, %ymm12, %ymm4                          #lbm.c:297.102
..LN2297:
        vmulps    %ymm4, %ymm10, %ymm13                         #lbm.c:297.102
..LN2298:
        vaddps    %ymm13, %ymm5, %ymm12                         #lbm.c:297.102
..LN2299:
	.loc    1  272  is_stmt 1
        vmulps    %ymm7, %ymm14, %ymm13                         #lbm.c:272.55
..LN2300:
	.loc    1  297  is_stmt 1
        vblendvps %ymm11, %ymm0, %ymm12, %ymm4                  #lbm.c:297.102
..LN2301:
	.loc    1  272  is_stmt 1
        vaddps    %ymm13, %ymm6, %ymm12                         #lbm.c:272.55
..LN2302:
	.loc    1  308  is_stmt 1
        vaddps    %ymm4, %ymm15, %ymm15                         #lbm.c:308.44
..LN2303:
	.loc    1  273  is_stmt 1
        vmulps    %ymm8, %ymm14, %ymm13                         #lbm.c:273.52
..LN2304:
	.loc    1  321  is_stmt 1
        vmovups   %ymm4, (%rsi,%r13,4)                          #lbm.c:321.9
..LN2305:
	.loc    1  273  is_stmt 1
        vmulps    %ymm13, %ymm14, %ymm14                        #lbm.c:273.74
..LN2306:
        vaddps    %ymm14, %ymm12, %ymm13                        #lbm.c:273.74
..LN2307:
	.loc    1  274  is_stmt 1
        vsubps    %ymm9, %ymm13, %ymm12                         #lbm.c:274.58
..LN2308:
        vmulps    %ymm12, %ymm3, %ymm14                         #lbm.c:274.58
..LN2309:
	.loc    1  298  is_stmt 1
        vsubps    %ymm2, %ymm14, %ymm13                         #lbm.c:298.102
..LN2310:
        vmulps    %ymm13, %ymm10, %ymm12                        #lbm.c:298.102
..LN2311:
        vaddps    %ymm12, %ymm2, %ymm14                         #lbm.c:298.102
..LN2312:
        vblendvps %ymm11, %ymm1, %ymm14, %ymm12                 #lbm.c:298.102
..LN2313:
	.loc    1  308  is_stmt 1
        vaddps    %ymm15, %ymm12, %ymm13                        #lbm.c:308.49
..LN2314:
	.loc    1  275  is_stmt 1
        vmovups   800(%rsp), %ymm15                             #lbm.c:275.55
..LN2315:
	.loc    1  298  is_stmt 1
        vmovups   %ymm12, 1024(%rsp)                            #lbm.c:298.102
..LN2316:
	.loc    1  322  is_stmt 1
        vmovups   %ymm12, (%rdi,%r13,4)                         #lbm.c:322.9
..LN2317:
	.loc    1  276  is_stmt 1
        vmulps    %ymm8, %ymm15, %ymm12                         #lbm.c:276.52
..LN2318:
	.loc    1  275  is_stmt 1
        vmulps    %ymm15, %ymm7, %ymm14                         #lbm.c:275.55
..LN2319:
	.loc    1  276  is_stmt 1
        vmulps    %ymm12, %ymm15, %ymm15                        #lbm.c:276.74
..LN2320:
	.loc    1  275  is_stmt 1
        vaddps    %ymm14, %ymm6, %ymm14                         #lbm.c:275.55
..LN2321:
	.loc    1  276  is_stmt 1
        vaddps    %ymm15, %ymm14, %ymm15                        #lbm.c:276.74
..LN2322:
	.loc    1  277  is_stmt 1
        vsubps    %ymm9, %ymm15, %ymm12                         #lbm.c:277.58
..LN2323:
        vmulps    %ymm12, %ymm3, %ymm14                         #lbm.c:277.58
..LN2324:
	.loc    1  299  is_stmt 1
        vsubps    %ymm0, %ymm14, %ymm15                         #lbm.c:299.102
..LN2325:
        vmulps    %ymm15, %ymm10, %ymm12                        #lbm.c:299.102
..LN2326:
        vaddps    %ymm12, %ymm0, %ymm0                          #lbm.c:299.102
..LN2327:
        vblendvps %ymm11, %ymm5, %ymm0, %ymm5                   #lbm.c:299.102
..LN2328:
	.loc    1  278  is_stmt 1
        vmovups   832(%rsp), %ymm0                              #lbm.c:278.55
..LN2329:
	.loc    1  323  is_stmt 1
        vmovups   %ymm5, (%r8,%r13,4)                           #lbm.c:323.9
..LN2330:
	.loc    1  308  is_stmt 1
        vaddps    %ymm13, %ymm5, %ymm15                         #lbm.c:308.54
..LN2331:
	.loc    1  278  is_stmt 1
        vmulps    %ymm0, %ymm7, %ymm13                          #lbm.c:278.55
..LN2332:
	.loc    1  279  is_stmt 1
        vmulps    %ymm8, %ymm0, %ymm12                          #lbm.c:279.52
..LN2333:
	.loc    1  278  is_stmt 1
        vaddps    %ymm13, %ymm6, %ymm14                         #lbm.c:278.55
..LN2334:
	.loc    1  279  is_stmt 1
        vmulps    %ymm12, %ymm0, %ymm13                         #lbm.c:279.74
..LN2335:
        vaddps    %ymm13, %ymm14, %ymm0                         #lbm.c:279.74
..LN2336:
	.loc    1  280  is_stmt 1
        vsubps    %ymm9, %ymm0, %ymm12                          #lbm.c:280.58
..LN2337:
